
RTC_CDC_USB.elf:     file format elf32-littleriscv
RTC_CDC_USB.elf
architecture: riscv:rv32, flags 0x00000112:
EXEC_P, HAS_SYMS, D_PAGED
start address 0x00000000

Program Header:
    LOAD off    0x00001000 vaddr 0x00000000 paddr 0x00000000 align 2**12
         filesz 0x00003f88 memsz 0x00003f88 flags r-x
    LOAD off    0x00005000 vaddr 0x20000000 paddr 0x00003f88 align 2**12
         filesz 0x000002d8 memsz 0x000004f8 flags rw-
    LOAD off    0x00005800 vaddr 0x20004800 paddr 0x20004800 align 2**12
         filesz 0x00000000 memsz 0x00000800 flags rw-

Sections:
Idx Name          Size      VMA       LMA       File off  Algn
  0 .init         00000004  00000000  00000000  00001000  2**1
                  CONTENTS, ALLOC, LOAD, READONLY, CODE
  1 .vector       000000fc  00000004  00000004  00001004  2**1
                  CONTENTS, ALLOC, LOAD, READONLY, CODE
  2 .text         00003e88  00000100  00000100  00001100  2**2
                  CONTENTS, ALLOC, LOAD, READONLY, CODE
  3 .fini         00000000  00003f88  00003f88  000052d8  2**0
                  CONTENTS, ALLOC, LOAD, CODE
  4 .dalign       00000000  20000000  20000000  000052d8  2**0
                  CONTENTS
  5 .dlalign      00000000  00003f88  00003f88  000052d8  2**0
                  CONTENTS
  6 .data         000002d8  20000000  00003f88  00005000  2**2
                  CONTENTS, ALLOC, LOAD, DATA
  7 .bss          00000220  200002d8  00004260  000052d8  2**2
                  ALLOC
  8 .stack        00000800  20004800  20004800  00005800  2**0
                  ALLOC
  9 .debug_info   00017e17  00000000  00000000  000052d8  2**0
                  CONTENTS, READONLY, DEBUGGING
 10 .debug_abbrev 000045f0  00000000  00000000  0001d0ef  2**0
                  CONTENTS, READONLY, DEBUGGING
 11 .debug_loc    000037eb  00000000  00000000  000216df  2**0
                  CONTENTS, READONLY, DEBUGGING
 12 .debug_aranges 000008f8  00000000  00000000  00024ed0  2**3
                  CONTENTS, READONLY, DEBUGGING
 13 .debug_ranges 00000b18  00000000  00000000  000257c8  2**3
                  CONTENTS, READONLY, DEBUGGING
 14 .debug_line   0000c9e0  00000000  00000000  000262e0  2**0
                  CONTENTS, READONLY, DEBUGGING
 15 .debug_str    00002f26  00000000  00000000  00032cc0  2**0
                  CONTENTS, READONLY, DEBUGGING
 16 .comment      00000033  00000000  00000000  00035be6  2**0
                  CONTENTS, READONLY
 17 .debug_frame  00001ea0  00000000  00000000  00035c1c  2**2
                  CONTENTS, READONLY, DEBUGGING
 18 .stabstr      000000a9  00000000  00000000  00037abc  2**0
                  CONTENTS, READONLY, DEBUGGING
SYMBOL TABLE:
00000000 l    d  .init	00000000 .init
00000004 l    d  .vector	00000000 .vector
00000100 l    d  .text	00000000 .text
00003f88 l    d  .fini	00000000 .fini
20000000 l    d  .dalign	00000000 .dalign
00003f88 l    d  .dlalign	00000000 .dlalign
20000000 l    d  .data	00000000 .data
200002d8 l    d  .bss	00000000 .bss
20004800 l    d  .stack	00000000 .stack
00000000 l    d  .debug_info	00000000 .debug_info
00000000 l    d  .debug_abbrev	00000000 .debug_abbrev
00000000 l    d  .debug_loc	00000000 .debug_loc
00000000 l    d  .debug_aranges	00000000 .debug_aranges
00000000 l    d  .debug_ranges	00000000 .debug_ranges
00000000 l    d  .debug_line	00000000 .debug_line
00000000 l    d  .debug_str	00000000 .debug_str
00000000 l    d  .comment	00000000 .comment
00000000 l    d  .debug_frame	00000000 .debug_frame
00000000 l    d  .stabstr	00000000 .stabstr
00000000 l    df *ABS*	00000000 ./Startup/startup_ch32v20x_D6.o
00000004 l       .vector	00000000 _vector_base
00000000 l    df *ABS*	00000000 usb_core.c
0000022e l     F .text	000000ae DataStageIn
00000000 l    df *ABS*	00000000 usb_init.c
00000000 l    df *ABS*	00000000 usb_int.c
00000000 l    df *ABS*	00000000 usb_mem.c
00000000 l    df *ABS*	00000000 usb_regs.c
00000000 l    df *ABS*	00000000 usb_sil.c
00000000 l    df *ABS*	00000000 hw_config.c
00000000 l    df *ABS*	00000000 usb_endp.c
00000000 l    df *ABS*	00000000 usb_istr.c
00000000 l    df *ABS*	00000000 usb_prop.c
00000000 l    df *ABS*	00000000 usb_pwr.c
00000000 l    df *ABS*	00000000 ch32v20x_it.c
00000000 l    df *ABS*	00000000 main.c
00000000 l    df *ABS*	00000000 rtc.c
2000031a l     O .bss	00000002 daycnt.4717
00000000 l    df *ABS*	00000000 system_ch32v20x.c
00000000 l    df *ABS*	00000000 usb_serial.c
00000000 l    df *ABS*	00000000 ch32v20x_bkp.c
00000000 l    df *ABS*	00000000 ch32v20x_misc.c
00000000 l    df *ABS*	00000000 ch32v20x_pwr.c
00000000 l    df *ABS*	00000000 ch32v20x_rcc.c
00000000 l    df *ABS*	00000000 ch32v20x_rtc.c
00000000 l    df *ABS*	00000000 debug.c
20000320 l     O .bss	00000002 p_ms
20000322 l     O .bss	00000001 p_us
200002c8 l     O .data	00000004 curbrk.4673
00000000 l    df *ABS*	00000000 sprintf.c
00000000 l    df *ABS*	00000000 sscanf.c
00000000 l    df *ABS*	00000000 stdio.c
00000000 l    df *ABS*	00000000 strlen.c
00000000 l    df *ABS*	00000000 nano-vfprintf.c
00000000 l    df *ABS*	00000000 nano-vfscanf.c
00000000 l    df *ABS*	00000000 nano-vfprintf_i.c
00000000 l    df *ABS*	00000000 nano-vfscanf_i.c
00000000 l    df *ABS*	00000000 sccl.c
00000000 l    df *ABS*	00000000 strtol.c
000035ca l     F .text	00000138 _strtol_l.isra.0
00000000 l    df *ABS*	00000000 strtoul.c
00003718 l     F .text	0000012e _strtoul_l.isra.0
00000000 l    df *ABS*	00000000 ungetc.c
00000000 l    df *ABS*	00000000 locale.c
00000000 l    df *ABS*	00000000 mbtowc_r.c
00000000 l    df *ABS*	00000000 memchr.c
00000000 l    df *ABS*	00000000 memcpy.c
00000000 l    df *ABS*	00000000 memmove.c
00000000 l    df *ABS*	00000000 nano-mallocr.c
00000000 l    df *ABS*	00000000 nano-mallocr.c
00000000 l    df *ABS*	00000000 nano-mallocr.c
00000000 l    df *ABS*	00000000 sbrkr.c
00000000 l    df *ABS*	00000000 wctomb_r.c
00000000 l    df *ABS*	00000000 mlock.c
00000000 l    df *ABS*	00000000 nano-mallocr.c
00000000 l    df *ABS*	00000000 usb_desc.c
00000000 l    df *ABS*	00000000 findfp.c
00000000 l    df *ABS*	00000000 ctype_.c
00000000 l    df *ABS*	00000000 impure.c
200000d4 l     O .data	00000060 impure_data
00000000 l    df *ABS*	00000000 reent.c
00000000 l    df *ABS*	00000000 close.c
00003c52 g     F .text	00000014 _malloc_usable_size_r
00000ee4 g     F .text	00000042 SetEPRxValid
200002ee g     O .bss	00000002 SaveRState
000021ba  w      .text	00000000 EXTI2_IRQHandler
00003212 g     F .text	000000e0 _scanf_chars
000010d6 g     F .text	00000022 GetEPRxCount
20000314 g     O .bss	00000004 remotewakeupon
20000348 g     O .bss	00000100 rxData
0000046a g     F .text	000000ba Standard_SetEndPointFeature
000013e6 g     F .text	00000010 usbSerial_available
000009ea g     F .text	00000032 USB_Init
20000aa0 g       .data	00000000 __global_pointer$
00000108 g     F .text	00000028 .hidden __riscv_save_8
000021ba  w      .text	00000000 TIM1_CC_IRQHandler
000010f8 g     F .text	0000000e ByteSwap
00001bf4 g     F .text	00000002 HardFault_Handler
200002a1 g     O .data	00000001 usbNotReady
00002422 g     F .text	00000012 RTC_EnterConfigMode
00003c50 g     F .text	00000002 __malloc_unlock
00000ffc g     F .text	0000001c GetEPTxAddr
0000252c g     F .text	00000014 RTC_ClearFlag
00000154 g     F .text	0000000c .hidden __riscv_restore_3
000021ba  w      .text	00000000 SysTick_Handler
00002290 g     F .text	00000054 NVIC_Init
00001394 g     F .text	00000052 usbSerial_writeP
000021ba  w      .text	00000000 PVD_IRQHandler
000039f6 g     F .text	00000046 memmove
00000140 g     F .text	00000020 .hidden __riscv_restore_10
00001a2a g     F .text	00000002 USBD_Status_In
000038e2 g     F .text	00000018 __locale_ctype_ptr
00001bf2 g     F .text	00000002 NMI_Handler
200002b8 g     O .data	00000008 cdc_comconfig
000021ba  w      .text	00000000 EXTI3_IRQHandler
00000108 g     F .text	00000028 .hidden __riscv_save_11
00001036 g     F .text	0000001e SetEPTxCount
000011ba g     F .text	00000008 Enter_LowPowerMode
0000244c g     F .text	0000005a RTC_GetCounter
200002ac g     O .data	00000008 Device_Descriptor
20000448 g     O .bss	00000040 txData
200004f4 g     O .bss	00000004 errno
000032f2 g     F .text	00000256 _scanf_i
00002680 g     F .text	00000004 __seofread
200002d8 g       .bss	00000000 _sbss
00000800 g       *ABS*	00000000 __stack_size
000021ba  w      .text	00000000 USBFS_IRQHandler
200002f6 g     O .bss	00000002 Ep0RxBlks
00000e46 g     F .text	00000048 SetEPTxStatus
20000034 g     O .data	0000001c pEpInt_OUT
200002f3 g     O .bss	00000001 rxDataTail
00000154 g     F .text	0000000c .hidden __riscv_restore_2
00000524 g     F .text	0000001c Standard_SetDeviceFeature
000023ba g     F .text	00000020 RCC_BackupResetCmd
00003cac g     O .text	00000012 USBD_DeviceDescriptor
00003944 g     F .text	000000b2 memcpy
000011d4 g     F .text	0000002c USB_Interrupts_Config
00002252 g     F .text	0000001c BKP_WriteBackupRegister
0000277a g     F .text	0000026a _svfprintf_r
000021ba  w      .text	00000000 EXTI0_IRQHandler
00000350 g     F .text	0000011a Standard_ClearFeature
000021ba  w      .text	00000000 I2C2_EV_IRQHandler
0000114e g     F .text	00000022 USB_SIL_Read
200002c4 g     O .data	00000004 SystemCoreClock
20000300 g     O .bss	00000004 wCNTR
00002176 g     F .text	00000044 usbSerial_println_s
0000058a g     F .text	000002f0 Setup0_Process
00000004 g       .init	00000000 _einit
0000237e g     F .text	0000001e RCC_APB2PeriphClockCmd
00000100 g     F .text	00000030 .hidden __riscv_save_12
000021ba  w      .text	00000000 ADC1_2_IRQHandler
00001346 g     F .text	0000004e usbSerial_flush
00002a7a g     F .text	00000044 __ssrefill_r
00000f26 g     F .text	00000026 ClearEP_KIND
000021ba  w      .text	00000000 Break_Point_Handler
000016c4 g     F .text	0000000a USB_CDC_SetLineCoding
00000140 g     F .text	00000020 .hidden __riscv_restore_11
2000031c g     O .bss	00000004 NVIC_Priority_Group
000021ba  w      .text	00000000 SPI1_IRQHandler
00003c06 g     F .text	0000002a _sbrk_r
20000304 g     O .bss	00000002 wIstr
000021ba  w      .text	00000000 TAMPER_IRQHandler
00000130 g     F .text	0000000c .hidden __riscv_save_1
00001e4a g     F .text	000000f6 RTC_Get
00000154 g     F .text	0000000c .hidden __riscv_restore_0
0000232a g     F .text	00000028 RCC_LSEConfig
00000116 g     F .text	0000001a .hidden __riscv_save_7
00001d00 g     F .text	00000026 Is_Leap_Year
200002e4 g     O .bss	00000004 pProperty
0000235e g     F .text	00000020 RCC_RTCCLKCmd
000002dc g     F .text	0000002c Standard_SetConfiguration
00002abe g     F .text	000003a4 __ssvfscanf_r
20000000 g     O .data	00000016 USBD_StringSerial
0000239c g     F .text	0000001e RCC_APB1PeriphClockCmd
000021ba  w      .text	00000000 Ecall_M_Mode_Handler
000022fa g     F .text	00000016 PWR_WakeUpPinCmd
20004800 g       .stack	00000000 _heap_end
00001176 g     F .text	00000044 Set_USBConfig
200002fc g     O .bss	00000004 esof_counter
20000018 g     O .data	0000001c pEpInt_IN
0000014a g     F .text	00000016 .hidden __riscv_restore_5
000019fe g     F .text	00000028 USBD_GetStringDescriptor
00003bae g     F .text	00000058 _realloc_r
000021ba  w      .text	00000000 DMA1_Channel4_IRQHandler
000025c6 g     F .text	00000026 _sbrk
200002de g     O .bss	00000001 EPindex
20000050 g     O .data	00000030 Device_Property
000001a0 g     F .text	0000008e Standard_GetStatus
000024ce g     F .text	0000002a RTC_SetPrescaler
20000080 g     O .data	00000020 String_Descriptor
00001a26 g     F .text	00000002 USBD_Status_Out
00000f56 g     F .text	00000034 ClearDTOG_RX
0000014a g     F .text	00000016 .hidden __riscv_restore_6
000021ba  w      .text	00000000 USART3_IRQHandler
00001f40 g     F .text	000000b8 RTC_Init
00001740 g     F .text	00000046 USBD_init
000022e4 g     F .text	00000016 PWR_BackupAccessCmd
00001ff8 g     F .text	0000001e RTC_IRQHandler
200004f8 g       .bss	00000000 _ebss
000009e8 g     F .text	00000002 NOP_Process
00003da0 g     O .text	0000000c mon_table
00003cd8 g     O .text	0000000e USBD_StringVendor
000021ba  w      .text	00000000 DMA1_Channel7_IRQHandler
0000214c g     F .text	0000002a getLen
000021ba  w      .text	00000000 CAN1_RX1_IRQHandler
0000256a g     F .text	00000026 Delay_Init
00002508 g     F .text	00000024 RTC_WaitForSynchro
00000308 g     F .text	00000048 Standard_SetInterface
200002a0 g     O .data	00000001 USBD_Endp3_Busy
00001054 g     F .text	00000082 SetEPRxCount
000023da g     F .text	0000002e RCC_GetFlagStatus
00002242 g     F .text	00000010 BKP_DeInit
000016a2 g     F .text	00000010 USBD_Get_Interface_Setting
00001106 g     F .text	00000020 USB_SIL_Init
00001a2c g     F .text	0000002a PowerOn
000021ba  w      .text	00000000 TIM4_IRQHandler
00000108 g     F .text	00000028 .hidden __riscv_save_9
00000a1c g     F .text	000003b8 CTR_LP
000024a6 g     F .text	00000028 RTC_SetCounter
00003e14 g     O .text	00000020 __sf_fake_stderr
00000116 g     F .text	0000001a .hidden __riscv_save_4
00003dac g     O .text	0000000c table_week
000021ba  w      .text	00000000 I2C1_EV_IRQHandler
200002f0 g     O .bss	00000002 SaveTState
00003c68 g     O .text	00000043 USBD_ConfigDescriptor
00002696 g     F .text	000000e4 __ssputs_r
00000e16 g     F .text	00000010 SetBTABLE
000021ba  w      .text	00000000 DMA1_Channel6_IRQHandler
200000a0 g     O .data	00000024 User_Standard_Requests
000021ba  w      .text	00000000 UART4_IRQHandler
200002c0 g     O .data	00000004 fSuspendEnabled
0000392c g     F .text	00000018 memchr
00003a3c g     F .text	000000a4 _free_r
00001a56 g     F .text	000000ba Suspend
000021ba  w      .text	00000000 TIM3_IRQHandler
000021ba  w      .text	00000000 RCC_IRQHandler
00000130 g     F .text	0000000c .hidden __riscv_save_3
00001200 g     F .text	000000b2 USB_Port_Set
2000032c g     O .bss	0000001c Device_Info
00001316 g     F .text	00000030 usbSerial_writeReady
000021ba  w      .text	00000000 TIM1_TRG_COM_IRQHandler
00001786 g     F .text	00000258 USBD_Reset
000021ba  w      .text	00000000 DMA1_Channel1_IRQHandler
000029e4 g     F .text	00000096 _sungetc_r
00000160 g     F .text	00000020 Standard_GetConfiguration
200002f2 g     O .bss	00000001 rxDataHead
00000000 g       .init	00000000 _start
200000c4 g     O .data	00000010 AHBPrescTable
0000168a g     F .text	0000000e USBD_SetConfiguration
00001dfc g     F .text	0000004e RTC_Get_Week
200002e8 g     O .bss	00000004 pUser_Standard_Requests
00002352 g     F .text	0000000c RCC_RTCCLKConfig
00001126 g     F .text	00000028 USB_SIL_Write
000021ba  w      .text	00000000 EXTI15_10_IRQHandler
200004a8 g     O .bss	00000020 buffer
000019ee g     F .text	00000010 USBD_GetConfigDescriptor
00001718 g     F .text	00000028 USBD_NoData_Setup
00000944 g     F .text	0000004a SetDeviceAddress
000021ba  w      .text	00000000 DMA1_Channel8_IRQHandler
00000df8 g     F .text	0000001e PMAToUserBufferCopy
00000fda g     F .text	00000022 SetEPRxAddr
00003846 g     F .text	00000016 _strtoul_r
00002540 g     F .text	00000020 RTC_GetITStatus
000013f6 g     F .text	0000002a usbSerial_read
200002f8 g     O .bss	00000001 bIntPackSOF
20000000 g       .dalign	00000000 _data_vma
0000098e g     F .text	0000005a In0_Process
00001b10 g     F .text	0000002c Resume_Init
00002630 g     F .text	00000050 sscanf
000021ba  w      .text	00000000 EXTI9_5_IRQHandler
00000108 g     F .text	00000028 .hidden __riscv_save_10
200002dc g     O .bss	00000002 StatusInfo
200002e0 g     O .bss	00000004 pInformation
00000e26 g     F .text	00000020 SetEPType
00003c4e g     F .text	00000002 __malloc_lock
0000014a g     F .text	00000016 .hidden __riscv_restore_4
000016a0 g     F .text	00000002 USBD_SetDeviceFeature
00000140 g     F .text	00000020 .hidden __riscv_restore_8
20000308 g     O .bss	00000008 ResumeS
00000116 g     F .text	0000001a .hidden __riscv_save_6
000021ba  w      .text	00000000 SPI2_IRQHandler
00003e34 g     O .text	00000020 __sf_fake_stdin
00000140 g     F .text	00000020 .hidden __riscv_restore_9
0000014a g     F .text	00000016 .hidden __riscv_restore_7
00001ca8 g     F .text	00000058 main
00001bf6 g     F .text	000000b2 processUSBData
00000180 g     F .text	00000020 Standard_GetInterface
00003702 g     F .text	00000016 _strtol_r
00003ae0 g     F .text	000000ce _malloc_r
00003c30 g     F .text	0000001e __ascii_wctomb
0000385c g     F .text	00000080 __submore
00001d26 g     F .text	000000d6 RTC_Set
000021ba  w      .text	00000000 DMA1_Channel5_IRQHandler
00002310 g     F .text	0000001a RCC_USBCLKConfig
000021ba  w      .text	00000000 EXTI4_IRQHandler
200002f4 g     O .bss	00000001 txCount
00002590 g     F .text	00000036 Delay_Ms
00001170 g     F .text	00000006 USB_LP_CAN1_RX0_IRQHandler
00002630 g     F .text	00000050 siscanf
00002016 g     F .text	000000a8 SystemInit
000021ba  w      .text	00000000 USB_HP_CAN1_TX_IRQHandler
000025ec g     F .text	00000044 sprintf
00000000 g       .init	00000000 _sinit
000021ba  w      .text	00000000 DMA1_Channel3_IRQHandler
000012b2 g     F .text	00000042 usbSerial_start
00002e62 g     F .text	0000010c _printf_common
200002cc g     O .data	00000004 _impure_ptr
000021ba  w      .text	00000000 TIM1_UP_IRQHandler
00000540 g     F .text	00000018 Standard_GetDescriptorData
0000277a g     F .text	0000026a _svfiprintf_r
00001a28 g     F .text	00000002 USBD_ClearFeature
0000087a g     F .text	000000ca Out0_Process
000021ba  w      .text	00000000 WWDG_IRQHandler
0000226e g     F .text	0000001c BKP_ReadBackupRegister
000038fa g     F .text	00000032 __ascii_mbtowc
000021ba  w      .text	00000000 Ecall_U_Mode_Handler
00001420 g     F .text	00000002 EP1_IN_Callback
000011c2 g     F .text	00000012 Leave_LowPowerMode
000021ba  w      .text	00000000 TIM2_IRQHandler
20005000 g       .stack	00000000 _eusrstack
00000130 g     F .text	0000000c .hidden __riscv_save_2
000021ba  w      .text	00000000 SW_Handler
00002abe g     F .text	000003a4 __ssvfiscanf_r
000021ba  w      .text	00000000 TIM1_BRK_IRQHandler
000021ba  w      .text	00000000 EXTI1_IRQHandler
00001422 g     F .text	00000056 EP2_OUT_Callback
00001698 g     F .text	00000008 USBD_SetDeviceAddress
000012f4 g     F .text	00000022 usbSerial_connected
000024f8 g     F .text	00000010 RTC_WaitForLastTask
200002d0 g     O .data	00000004 USBD_StringLangID
200004e8 g     O .bss	0000000a calendar
00000116 g     F .text	0000001a .hidden __riscv_save_5
200002d8 g     O .bss	00000004 Data_Mul_MaxPacketSize
200002d8 g       .data	00000000 _edata
200004f8 g       .bss	00000000 _end
00000558 g     F .text	00000032 Post0_Process
200004c8 g     O .bss	00000020 incommingData
000021ba  w      .text	00000000 RTCAlarm_IRQHandler
00001478 g     F .text	0000000a EP3_IN_Callback
00001482 g     F .text	00000208 USB_Istr
00003f88 g       .dlalign	00000000 _data_lma
00000e8e g     F .text	00000056 SetEPRxStatus
000021ba  w      .text	00000000 USART2_IRQHandler
00002434 g     F .text	00000018 RTC_ExitConfigMode
000020be g     F .text	0000008e SystemCoreClockUpdate
00000f8a g     F .text	00000030 ClearDTOG_TX
00002560 g     F .text	0000000a RTC_ClearITPendingBit
20000488 g     O .bss	00000020 EP
00000fba g     F .text	00000020 SetEPTxAddr
000021ba  w      .text	00000000 I2C2_ER_IRQHandler
000021ba  w      .text	00000000 DMA1_Channel2_IRQHandler
000016b2 g     F .text	00000012 USB_CDC_GetLineCoding
00003e54 g     O .text	00000020 __sf_fake_stdout
000025ec g     F .text	00000044 siprintf
00003548 g     F .text	00000082 __sccl
00002408 g     F .text	0000001a RTC_ITConfig
0000013c g     F .text	00000024 .hidden __riscv_restore_12
00003e84 g     O .text	00000101 _ctype_
00003cc0 g     O .text	00000016 USBD_StringProduct
000021bc  w      .text	00000000 handle_reset
200002a4 g     O .data	00000008 Config_Descriptor
00000f4c g     F .text	0000000a Clear_Status_Out
000021ba  w      .text	00000000 CAN1_SCE_IRQHandler
000019de g     F .text	00000010 USBD_GetDeviceDescriptor
000021ba  w      .text	00000000 FLASH_IRQHandler
00000130 g     F .text	0000000c .hidden __riscv_save_0
000021ba  w      .text	00000000 USBFSWakeUp_IRQHandler
00000dd4 g     F .text	00000024 UserToPMABufferCopy
000021ba  w      .text	00000000 USART1_IRQHandler
00002684 g     F .text	00000012 strlen
00002f6e g     F .text	000002a4 _printf_i
000038dc g     F .text	00000006 __locale_ctype_ptr_l
20000328 g     O .bss	00000004 __malloc_sbrk_start
000021ba  w      .text	00000000 I2C1_ER_IRQHandler
0000228a g     F .text	00000006 NVIC_PriorityGroupConfig
20000310 g     O .bss	00000004 bDeviceState
00001b3c g     F .text	000000b6 Resume
200002b4 g     O .data	00000002 Device_Table
20000324 g     O .bss	00000004 __malloc_free_list
20000318 g     O .bss	00000002 len
00000154 g     F .text	0000000c .hidden __riscv_restore_1
000016ce g     F .text	0000004a USBD_Data_Setup
200002ec g     O .bss	00000002 wInterrupt_Mask
00001018 g     F .text	0000001e GetEPRxAddr
20000134 g     O .data	0000016c __global_locale
000021ba  w      .text	00000000 USBWakeUp_IRQHandler



Disassembly of section .init:

00000000 <_sinit>:
   0:	1bc0206f          	j	21bc <handle_reset>

Disassembly of section .vector:

00000004 <_vector_base>:
	...
   c:	1bf2                	slli	s7,s7,0x3c
   e:	0000                	unimp
  10:	1bf4                	addi	a3,sp,508
  12:	0000                	unimp
  14:	0000                	unimp
  16:	0000                	unimp
  18:	21ba                	lhu	a4,2(a1)
	...
  22:	0000                	unimp
  24:	21ba                	lhu	a4,2(a1)
  26:	0000                	unimp
  28:	21ba                	lhu	a4,2(a1)
	...
  32:	0000                	unimp
  34:	21ba                	lhu	a4,2(a1)
  36:	0000                	unimp
  38:	0000                	unimp
  3a:	0000                	unimp
  3c:	21ba                	lhu	a4,2(a1)
  3e:	0000                	unimp
  40:	0000                	unimp
  42:	0000                	unimp
  44:	21ba                	lhu	a4,2(a1)
  46:	0000                	unimp
  48:	21ba                	lhu	a4,2(a1)
  4a:	0000                	unimp
  4c:	21ba                	lhu	a4,2(a1)
  4e:	0000                	unimp
  50:	1ff8                	addi	a4,sp,1020
  52:	0000                	unimp
  54:	21ba                	lhu	a4,2(a1)
  56:	0000                	unimp
  58:	21ba                	lhu	a4,2(a1)
  5a:	0000                	unimp
  5c:	21ba                	lhu	a4,2(a1)
  5e:	0000                	unimp
  60:	21ba                	lhu	a4,2(a1)
  62:	0000                	unimp
  64:	21ba                	lhu	a4,2(a1)
  66:	0000                	unimp
  68:	21ba                	lhu	a4,2(a1)
  6a:	0000                	unimp
  6c:	21ba                	lhu	a4,2(a1)
  6e:	0000                	unimp
  70:	21ba                	lhu	a4,2(a1)
  72:	0000                	unimp
  74:	21ba                	lhu	a4,2(a1)
  76:	0000                	unimp
  78:	21ba                	lhu	a4,2(a1)
  7a:	0000                	unimp
  7c:	21ba                	lhu	a4,2(a1)
  7e:	0000                	unimp
  80:	21ba                	lhu	a4,2(a1)
  82:	0000                	unimp
  84:	21ba                	lhu	a4,2(a1)
  86:	0000                	unimp
  88:	21ba                	lhu	a4,2(a1)
  8a:	0000                	unimp
  8c:	21ba                	lhu	a4,2(a1)
  8e:	0000                	unimp
  90:	21ba                	lhu	a4,2(a1)
  92:	0000                	unimp
  94:	1170                	addi	a2,sp,172
  96:	0000                	unimp
  98:	21ba                	lhu	a4,2(a1)
  9a:	0000                	unimp
  9c:	21ba                	lhu	a4,2(a1)
  9e:	0000                	unimp
  a0:	21ba                	lhu	a4,2(a1)
  a2:	0000                	unimp
  a4:	21ba                	lhu	a4,2(a1)
  a6:	0000                	unimp
  a8:	21ba                	lhu	a4,2(a1)
  aa:	0000                	unimp
  ac:	21ba                	lhu	a4,2(a1)
  ae:	0000                	unimp
  b0:	21ba                	lhu	a4,2(a1)
  b2:	0000                	unimp
  b4:	21ba                	lhu	a4,2(a1)
  b6:	0000                	unimp
  b8:	21ba                	lhu	a4,2(a1)
  ba:	0000                	unimp
  bc:	21ba                	lhu	a4,2(a1)
  be:	0000                	unimp
  c0:	21ba                	lhu	a4,2(a1)
  c2:	0000                	unimp
  c4:	21ba                	lhu	a4,2(a1)
  c6:	0000                	unimp
  c8:	21ba                	lhu	a4,2(a1)
  ca:	0000                	unimp
  cc:	21ba                	lhu	a4,2(a1)
  ce:	0000                	unimp
  d0:	21ba                	lhu	a4,2(a1)
  d2:	0000                	unimp
  d4:	21ba                	lhu	a4,2(a1)
  d6:	0000                	unimp
  d8:	21ba                	lhu	a4,2(a1)
  da:	0000                	unimp
  dc:	21ba                	lhu	a4,2(a1)
  de:	0000                	unimp
  e0:	21ba                	lhu	a4,2(a1)
  e2:	0000                	unimp
  e4:	21ba                	lhu	a4,2(a1)
  e6:	0000                	unimp
  e8:	21ba                	lhu	a4,2(a1)
  ea:	0000                	unimp
  ec:	21ba                	lhu	a4,2(a1)
  ee:	0000                	unimp
  f0:	21ba                	lhu	a4,2(a1)
  f2:	0000                	unimp
  f4:	21ba                	lhu	a4,2(a1)
  f6:	0000                	unimp
  f8:	21ba                	lhu	a4,2(a1)
  fa:	0000                	unimp
  fc:	21ba                	lhu	a4,2(a1)
	...

Disassembly of section .text:

00000100 <__riscv_save_12>:
     100:	7139                	addi	sp,sp,-64
     102:	4301                	li	t1,0
     104:	c66e                	sw	s11,12(sp)
     106:	a019                	j	10c <__riscv_save_10+0x4>

00000108 <__riscv_save_10>:
     108:	7139                	addi	sp,sp,-64
     10a:	5341                	li	t1,-16
     10c:	c86a                	sw	s10,16(sp)
     10e:	ca66                	sw	s9,20(sp)
     110:	cc62                	sw	s8,24(sp)
     112:	ce5e                	sw	s7,28(sp)
     114:	a019                	j	11a <__riscv_save_4+0x4>

00000116 <__riscv_save_4>:
     116:	7139                	addi	sp,sp,-64
     118:	5301                	li	t1,-32
     11a:	d05a                	sw	s6,32(sp)
     11c:	d256                	sw	s5,36(sp)
     11e:	d452                	sw	s4,40(sp)
     120:	d64e                	sw	s3,44(sp)
     122:	d84a                	sw	s2,48(sp)
     124:	da26                	sw	s1,52(sp)
     126:	dc22                	sw	s0,56(sp)
     128:	de06                	sw	ra,60(sp)
     12a:	40610133          	sub	sp,sp,t1
     12e:	8282                	jr	t0

00000130 <__riscv_save_0>:
     130:	1141                	addi	sp,sp,-16
     132:	c04a                	sw	s2,0(sp)
     134:	c226                	sw	s1,4(sp)
     136:	c422                	sw	s0,8(sp)
     138:	c606                	sw	ra,12(sp)
     13a:	8282                	jr	t0

0000013c <__riscv_restore_12>:
     13c:	4db2                	lw	s11,12(sp)
     13e:	0141                	addi	sp,sp,16

00000140 <__riscv_restore_10>:
     140:	4d02                	lw	s10,0(sp)
     142:	4c92                	lw	s9,4(sp)
     144:	4c22                	lw	s8,8(sp)
     146:	4bb2                	lw	s7,12(sp)
     148:	0141                	addi	sp,sp,16

0000014a <__riscv_restore_4>:
     14a:	4b02                	lw	s6,0(sp)
     14c:	4a92                	lw	s5,4(sp)
     14e:	4a22                	lw	s4,8(sp)
     150:	49b2                	lw	s3,12(sp)
     152:	0141                	addi	sp,sp,16

00000154 <__riscv_restore_0>:
     154:	4902                	lw	s2,0(sp)
     156:	4492                	lw	s1,4(sp)
     158:	4422                	lw	s0,8(sp)
     15a:	40b2                	lw	ra,12(sp)
     15c:	0141                	addi	sp,sp,16
     15e:	8082                	ret

00000160 <Standard_GetConfiguration>:
     160:	fd1ff2ef          	jal	t0,130 <__riscv_save_0>
     164:	e511                	bnez	a0,170 <Standard_GetConfiguration+0x10>
     166:	8401a783          	lw	a5,-1984(gp) # 200002e0 <pInformation>
     16a:	4705                	li	a4,1
     16c:	ab9a                	sh	a4,16(a5)
     16e:	b7dd                	j	154 <__riscv_restore_0>
     170:	8481a783          	lw	a5,-1976(gp) # 200002e8 <pUser_Standard_Requests>
     174:	439c                	lw	a5,0(a5)
     176:	9782                	jalr	a5
     178:	8401a503          	lw	a0,-1984(gp) # 200002e0 <pInformation>
     17c:	0529                	addi	a0,a0,10
     17e:	bfc5                	j	16e <Standard_GetConfiguration+0xe>

00000180 <Standard_GetInterface>:
     180:	fb1ff2ef          	jal	t0,130 <__riscv_save_0>
     184:	e511                	bnez	a0,190 <Standard_GetInterface+0x10>
     186:	8401a783          	lw	a5,-1984(gp) # 200002e0 <pInformation>
     18a:	4705                	li	a4,1
     18c:	ab9a                	sh	a4,16(a5)
     18e:	b7d9                	j	154 <__riscv_restore_0>
     190:	8481a783          	lw	a5,-1976(gp) # 200002e8 <pUser_Standard_Requests>
     194:	479c                	lw	a5,8(a5)
     196:	9782                	jalr	a5
     198:	8401a503          	lw	a0,-1984(gp) # 200002e0 <pInformation>
     19c:	0531                	addi	a0,a0,12
     19e:	bfc5                	j	18e <Standard_GetInterface+0xe>

000001a0 <Standard_GetStatus>:
     1a0:	8401a703          	lw	a4,-1984(gp) # 200002e0 <pInformation>
     1a4:	e501                	bnez	a0,1ac <Standard_GetStatus+0xc>
     1a6:	4789                	li	a5,2
     1a8:	ab1e                	sh	a5,16(a4)
     1aa:	8082                	ret
     1ac:	f85ff2ef          	jal	t0,130 <__riscv_save_0>
     1b0:	82019e23          	sh	zero,-1988(gp) # 200002dc <StatusInfo>
     1b4:	231c                	lbu	a5,0(a4)
     1b6:	83c18413          	addi	s0,gp,-1988 # 200002dc <StatusInfo>
     1ba:	07f7f793          	andi	a5,a5,127
     1be:	e795                	bnez	a5,1ea <Standard_GetStatus+0x4a>
     1c0:	3718                	lbu	a4,9(a4)
     1c2:	02077793          	andi	a5,a4,32
     1c6:	c399                	beqz	a5,1cc <Standard_GetStatus+0x2c>
     1c8:	4789                	li	a5,2
     1ca:	a01c                	sb	a5,0(s0)
     1cc:	04077713          	andi	a4,a4,64
     1d0:	201c                	lbu	a5,0(s0)
     1d2:	cb11                	beqz	a4,1e6 <Standard_GetStatus+0x46>
     1d4:	0017e793          	ori	a5,a5,1
     1d8:	a01c                	sb	a5,0(s0)
     1da:	8481a783          	lw	a5,-1976(gp) # 200002e8 <pUser_Standard_Requests>
     1de:	4b9c                	lw	a5,16(a5)
     1e0:	9782                	jalr	a5
     1e2:	8522                	mv	a0,s0
     1e4:	bf85                	j	154 <__riscv_restore_0>
     1e6:	9bf9                	andi	a5,a5,-2
     1e8:	bfc5                	j	1d8 <Standard_GetStatus+0x38>
     1ea:	4685                	li	a3,1
     1ec:	83c18513          	addi	a0,gp,-1988 # 200002dc <StatusInfo>
     1f0:	fed78ae3          	beq	a5,a3,1e4 <Standard_GetStatus+0x44>
     1f4:	4689                	li	a3,2
     1f6:	4501                	li	a0,0
     1f8:	fed796e3          	bne	a5,a3,1e4 <Standard_GetStatus+0x44>
     1fc:	3358                	lbu	a4,5(a4)
     1fe:	400066b7          	lui	a3,0x40006
     202:	c0068693          	addi	a3,a3,-1024 # 40005c00 <_eusrstack+0x20000c00>
     206:	00f77793          	andi	a5,a4,15
     20a:	078a                	slli	a5,a5,0x2
     20c:	97b6                	add	a5,a5,a3
     20e:	0762                	slli	a4,a4,0x18
     210:	439c                	lw	a5,0(a5)
     212:	8761                	srai	a4,a4,0x18
     214:	00075963          	bgez	a4,226 <Standard_GetStatus+0x86>
     218:	0307f793          	andi	a5,a5,48
     21c:	4741                	li	a4,16
     21e:	fae79ee3          	bne	a5,a4,1da <Standard_GetStatus+0x3a>
     222:	4785                	li	a5,1
     224:	bf55                	j	1d8 <Standard_GetStatus+0x38>
     226:	670d                	lui	a4,0x3
     228:	8ff9                	and	a5,a5,a4
     22a:	6705                	lui	a4,0x1
     22c:	bfcd                	j	21e <Standard_GetStatus+0x7e>

0000022e <DataStageIn>:
     22e:	ee9ff2ef          	jal	t0,116 <__riscv_save_4>
     232:	8401a483          	lw	s1,-1984(gp) # 200002e0 <pInformation>
     236:	8a3e                	mv	s4,a5
     238:	2882                	lhu	s0,16(s1)
     23a:	e829                	bnez	s0,28c <DataStageIn+0x5e>
     23c:	2498                	lbu	a4,8(s1)
     23e:	4791                	li	a5,4
     240:	04f71663          	bne	a4,a5,28c <DataStageIn+0x5e>
     244:	83818713          	addi	a4,gp,-1992 # 200002d8 <_edata>
     248:	4314                	lw	a3,0(a4)
     24a:	4785                	li	a5,1
     24c:	02f69b63          	bne	a3,a5,282 <DataStageIn+0x54>
     250:	400067b7          	lui	a5,0x40006
     254:	c507a783          	lw	a5,-944(a5) # 40005c50 <_eusrstack+0x20000c50>
     258:	200036b7          	lui	a3,0x20003
     25c:	0689                	addi	a3,a3,2
     25e:	07c2                	slli	a5,a5,0x10
     260:	83c1                	srli	a5,a5,0x10
     262:	97b6                	add	a5,a5,a3
     264:	0786                	slli	a5,a5,0x1
     266:	0007a023          	sw	zero,0(a5)
     26a:	03000793          	li	a5,48
     26e:	84f19823          	sh	a5,-1968(gp) # 200002f0 <SaveTState>
     272:	00072023          	sw	zero,0(a4) # 1000 <GetEPTxAddr+0x4>
     276:	4911                	li	s2,4
     278:	8401a783          	lw	a5,-1984(gp) # 200002e0 <pInformation>
     27c:	01278423          	sb	s2,8(a5)
     280:	b5e9                	j	14a <__riscv_restore_4>
     282:	47c1                	li	a5,16
     284:	84f19823          	sh	a5,-1968(gp) # 200002f0 <SaveTState>
     288:	491d                	li	s2,7
     28a:	b7fd                	j	278 <DataStageIn+0x4a>
     28c:	28de                	lhu	a5,20(s1)
     28e:	4911                	li	s2,4
     290:	0087f363          	bgeu	a5,s0,296 <DataStageIn+0x68>
     294:	4909                	li	s2,2
     296:	0087f363          	bgeu	a5,s0,29c <DataStageIn+0x6e>
     29a:	843e                	mv	s0,a5
     29c:	4c9c                	lw	a5,24(s1)
     29e:	0442                	slli	s0,s0,0x10
     2a0:	8041                	srli	s0,s0,0x10
     2a2:	8522                	mv	a0,s0
     2a4:	9782                	jalr	a5
     2a6:	8aaa                	mv	s5,a0
     2a8:	4501                	li	a0,0
     2aa:	553000ef          	jal	ra,ffc <GetEPTxAddr>
     2ae:	8622                	mv	a2,s0
     2b0:	85aa                	mv	a1,a0
     2b2:	8556                	mv	a0,s5
     2b4:	321000ef          	jal	ra,dd4 <UserToPMABufferCopy>
     2b8:	85a2                	mv	a1,s0
     2ba:	4501                	li	a0,0
     2bc:	57b000ef          	jal	ra,1036 <SetEPTxCount>
     2c0:	289e                	lhu	a5,16(s1)
     2c2:	670d                	lui	a4,0x3
     2c4:	8f81                	sub	a5,a5,s0
     2c6:	a89e                	sh	a5,16(s1)
     2c8:	28be                	lhu	a5,18(s1)
     2ca:	943e                	add	s0,s0,a5
     2cc:	03000793          	li	a5,48
     2d0:	84f19823          	sh	a5,-1968(gp) # 200002f0 <SaveTState>
     2d4:	a8a2                	sh	s0,18(s1)
     2d6:	84e19723          	sh	a4,-1970(gp) # 200002ee <SaveRState>
     2da:	bf79                	j	278 <DataStageIn+0x4a>

000002dc <Standard_SetConfiguration>:
     2dc:	8401a783          	lw	a5,-1984(gp) # 200002e0 <pInformation>
     2e0:	8151c683          	lbu	a3,-2027(gp) # 200002b5 <Device_Table+0x1>
     2e4:	33b8                	lbu	a4,3(a5)
     2e6:	4509                	li	a0,2
     2e8:	00e6ef63          	bltu	a3,a4,306 <Standard_SetConfiguration+0x2a>
     2ec:	23b4                	lbu	a3,2(a5)
     2ee:	ee81                	bnez	a3,306 <Standard_SetConfiguration+0x2a>
     2f0:	23d6                	lhu	a3,4(a5)
     2f2:	ea91                	bnez	a3,306 <Standard_SetConfiguration+0x2a>
     2f4:	e3dff2ef          	jal	t0,130 <__riscv_save_0>
     2f8:	a7b8                	sb	a4,10(a5)
     2fa:	8481a783          	lw	a5,-1976(gp) # 200002e8 <pUser_Standard_Requests>
     2fe:	43dc                	lw	a5,4(a5)
     300:	9782                	jalr	a5
     302:	4501                	li	a0,0
     304:	bd81                	j	154 <__riscv_restore_0>
     306:	8082                	ret

00000308 <Standard_SetInterface>:
     308:	e29ff2ef          	jal	t0,130 <__riscv_save_0>
     30c:	8401a783          	lw	a5,-1984(gp) # 200002e0 <pInformation>
     310:	8441a703          	lw	a4,-1980(gp) # 200002e4 <pProperty>
     314:	1141                	addi	sp,sp,-16
     316:	33ac                	lbu	a1,3(a5)
     318:	4f18                	lw	a4,24(a4)
     31a:	33c8                	lbu	a0,5(a5)
     31c:	9702                	jalr	a4
     31e:	8401a783          	lw	a5,-1984(gp) # 200002e0 <pInformation>
     322:	27b8                	lbu	a4,10(a5)
     324:	c705                	beqz	a4,34c <Standard_SetInterface+0x44>
     326:	c62a                	sw	a0,12(sp)
     328:	e115                	bnez	a0,34c <Standard_SetInterface+0x44>
     32a:	23d8                	lbu	a4,4(a5)
     32c:	e305                	bnez	a4,34c <Standard_SetInterface+0x44>
     32e:	23bc                	lbu	a5,2(a5)
     330:	ef91                	bnez	a5,34c <Standard_SetInterface+0x44>
     332:	8481a783          	lw	a5,-1976(gp) # 200002e8 <pUser_Standard_Requests>
     336:	47dc                	lw	a5,12(a5)
     338:	9782                	jalr	a5
     33a:	8401a783          	lw	a5,-1984(gp) # 200002e0 <pInformation>
     33e:	4532                	lw	a0,12(sp)
     340:	33d8                	lbu	a4,5(a5)
     342:	b7b8                	sb	a4,11(a5)
     344:	33b8                	lbu	a4,3(a5)
     346:	a7d8                	sb	a4,12(a5)
     348:	0141                	addi	sp,sp,16
     34a:	b529                	j	154 <__riscv_restore_0>
     34c:	4509                	li	a0,2
     34e:	bfed                	j	348 <Standard_SetInterface+0x40>

00000350 <Standard_ClearFeature>:
     350:	8401a783          	lw	a5,-1984(gp) # 200002e0 <pInformation>
     354:	2394                	lbu	a3,0(a5)
     356:	07f6f693          	andi	a3,a3,127
     35a:	ea81                	bnez	a3,36a <Standard_ClearFeature+0x1a>
     35c:	3798                	lbu	a4,9(a5)
     35e:	fdf77713          	andi	a4,a4,-33
     362:	b798                	sb	a4,9(a5)
     364:	4701                	li	a4,0
     366:	853a                	mv	a0,a4
     368:	8082                	ret
     36a:	4609                	li	a2,2
     36c:	4709                	li	a4,2
     36e:	fec69ce3          	bne	a3,a2,366 <Standard_ClearFeature+0x16>
     372:	23b6                	lhu	a3,2(a5)
     374:	faed                	bnez	a3,366 <Standard_ClearFeature+0x16>
     376:	23d4                	lbu	a3,4(a5)
     378:	f6fd                	bnez	a3,366 <Standard_ClearFeature+0x16>
     37a:	db7ff2ef          	jal	t0,130 <__riscv_save_0>
     37e:	33d0                	lbu	a2,5(a5)
     380:	40006737          	lui	a4,0x40006
     384:	c0070713          	addi	a4,a4,-1024 # 40005c00 <_eusrstack+0x20000c00>
     388:	f7f67513          	andi	a0,a2,-129
     38c:	00251413          	slli	s0,a0,0x2
     390:	943a                	add	s0,s0,a4
     392:	0662                	slli	a2,a2,0x18
     394:	4014                	lw	a3,0(s0)
     396:	8661                	srai	a2,a2,0x18
     398:	04065563          	bgez	a2,3e2 <Standard_ClearFeature+0x92>
     39c:	0306f693          	andi	a3,a3,48
     3a0:	8141c583          	lbu	a1,-2028(gp) # 200002b4 <Device_Table>
     3a4:	4709                	li	a4,2
     3a6:	02b57c63          	bgeu	a0,a1,3de <Standard_ClearFeature+0x8e>
     3aa:	ca95                	beqz	a3,3de <Standard_ClearFeature+0x8e>
     3ac:	27bc                	lbu	a5,10(a5)
     3ae:	cb85                	beqz	a5,3de <Standard_ClearFeature+0x8e>
     3b0:	401c                	lw	a5,0(s0)
     3b2:	02065b63          	bgez	a2,3e8 <Standard_ClearFeature+0x98>
     3b6:	0307f793          	andi	a5,a5,48
     3ba:	4741                	li	a4,16
     3bc:	00e79c63          	bne	a5,a4,3d4 <Standard_ClearFeature+0x84>
     3c0:	0ff57413          	andi	s0,a0,255
     3c4:	8522                	mv	a0,s0
     3c6:	3c5000ef          	jal	ra,f8a <ClearDTOG_TX>
     3ca:	03000593          	li	a1,48
     3ce:	8522                	mv	a0,s0
     3d0:	277000ef          	jal	ra,e46 <SetEPTxStatus>
     3d4:	8481a783          	lw	a5,-1976(gp) # 200002e8 <pUser_Standard_Requests>
     3d8:	4bdc                	lw	a5,20(a5)
     3da:	9782                	jalr	a5
     3dc:	4701                	li	a4,0
     3de:	853a                	mv	a0,a4
     3e0:	bb95                	j	154 <__riscv_restore_0>
     3e2:	670d                	lui	a4,0x3
     3e4:	8ef9                	and	a3,a3,a4
     3e6:	bf6d                	j	3a0 <Standard_ClearFeature+0x50>
     3e8:	64c1                	lui	s1,0x10
     3ea:	14fd                	addi	s1,s1,-1
     3ec:	670d                	lui	a4,0x3
     3ee:	8fe5                	and	a5,a5,s1
     3f0:	8ff9                	and	a5,a5,a4
     3f2:	6705                	lui	a4,0x1
     3f4:	fee790e3          	bne	a5,a4,3d4 <Standard_ClearFeature+0x84>
     3f8:	ed1d                	bnez	a0,436 <Standard_ClearFeature+0xe6>
     3fa:	200007b7          	lui	a5,0x20000
     3fe:	07c7c583          	lbu	a1,124(a5) # 2000007c <Device_Property+0x2c>
     402:	453000ef          	jal	ra,1054 <SetEPRxCount>
     406:	401c                	lw	a5,0(s0)
     408:	7771                	lui	a4,0xffffc
     40a:	f8f70713          	addi	a4,a4,-113 # ffffbf8f <_eusrstack+0xdfff6f8f>
     40e:	8ff9                	and	a5,a5,a4
     410:	07c2                	slli	a5,a5,0x10
     412:	670d                	lui	a4,0x3
     414:	83c1                	srli	a5,a5,0x10
     416:	8fb9                	xor	a5,a5,a4
     418:	7761                	lui	a4,0xffff8
     41a:	08070713          	addi	a4,a4,128 # ffff8080 <_eusrstack+0xdfff3080>
     41e:	8fd9                	or	a5,a5,a4
     420:	07c2                	slli	a5,a5,0x10
     422:	83c1                	srli	a5,a5,0x10
     424:	c01c                	sw	a5,0(s0)
     426:	668d                	lui	a3,0x3
     428:	4018                	lw	a4,0(s0)
     42a:	8f65                	and	a4,a4,s1
     42c:	8f75                	and	a4,a4,a3
     42e:	fad703e3          	beq	a4,a3,3d4 <Standard_ClearFeature+0x84>
     432:	c01c                	sw	a5,0(s0)
     434:	bfd5                	j	428 <Standard_ClearFeature+0xd8>
     436:	321000ef          	jal	ra,f56 <ClearDTOG_RX>
     43a:	401c                	lw	a5,0(s0)
     43c:	7771                	lui	a4,0xffffc
     43e:	f8f70713          	addi	a4,a4,-113 # ffffbf8f <_eusrstack+0xdfff6f8f>
     442:	8ff9                	and	a5,a5,a4
     444:	07c2                	slli	a5,a5,0x10
     446:	670d                	lui	a4,0x3
     448:	83c1                	srli	a5,a5,0x10
     44a:	8fb9                	xor	a5,a5,a4
     44c:	7761                	lui	a4,0xffff8
     44e:	08070713          	addi	a4,a4,128 # ffff8080 <_eusrstack+0xdfff3080>
     452:	8fd9                	or	a5,a5,a4
     454:	07c2                	slli	a5,a5,0x10
     456:	83c1                	srli	a5,a5,0x10
     458:	c01c                	sw	a5,0(s0)
     45a:	668d                	lui	a3,0x3
     45c:	4018                	lw	a4,0(s0)
     45e:	8f65                	and	a4,a4,s1
     460:	8f75                	and	a4,a4,a3
     462:	f6d709e3          	beq	a4,a3,3d4 <Standard_ClearFeature+0x84>
     466:	c01c                	sw	a5,0(s0)
     468:	bfd5                	j	45c <Standard_ClearFeature+0x10c>

0000046a <Standard_SetEndPointFeature>:
     46a:	8401a603          	lw	a2,-1984(gp) # 200002e0 <pInformation>
     46e:	400067b7          	lui	a5,0x40006
     472:	c0078793          	addi	a5,a5,-1024 # 40005c00 <_eusrstack+0x20000c00>
     476:	3254                	lbu	a3,5(a2)
     478:	f7f6f593          	andi	a1,a3,-129
     47c:	00259713          	slli	a4,a1,0x2
     480:	97ba                	add	a5,a5,a4
     482:	06e2                	slli	a3,a3,0x18
     484:	4398                	lw	a4,0(a5)
     486:	86e1                	srai	a3,a3,0x18
     488:	0406de63          	bgez	a3,4e4 <Standard_SetEndPointFeature+0x7a>
     48c:	03077713          	andi	a4,a4,48
     490:	8141c803          	lbu	a6,-2028(gp) # 200002b4 <Device_Table>
     494:	4509                	li	a0,2
     496:	0905f663          	bgeu	a1,a6,522 <Standard_SetEndPointFeature+0xb8>
     49a:	222e                	lhu	a1,2(a2)
     49c:	e1d9                	bnez	a1,522 <Standard_SetEndPointFeature+0xb8>
     49e:	c351                	beqz	a4,522 <Standard_SetEndPointFeature+0xb8>
     4a0:	2638                	lbu	a4,10(a2)
     4a2:	c341                	beqz	a4,522 <Standard_SetEndPointFeature+0xb8>
     4a4:	c8dff2ef          	jal	t0,130 <__riscv_save_0>
     4a8:	4398                	lw	a4,0(a5)
     4aa:	0406d263          	bgez	a3,4ee <Standard_SetEndPointFeature+0x84>
     4ae:	76e5                	lui	a3,0xffff9
     4b0:	fbf68693          	addi	a3,a3,-65 # ffff8fbf <_eusrstack+0xdfff3fbf>
     4b4:	8f75                	and	a4,a4,a3
     4b6:	0742                	slli	a4,a4,0x10
     4b8:	8341                	srli	a4,a4,0x10
     4ba:	76e1                	lui	a3,0xffff8
     4bc:	01074713          	xori	a4,a4,16
     4c0:	08068693          	addi	a3,a3,128 # ffff8080 <_eusrstack+0xdfff3080>
     4c4:	8f55                	or	a4,a4,a3
     4c6:	0742                	slli	a4,a4,0x10
     4c8:	8341                	srli	a4,a4,0x10
     4ca:	c398                	sw	a4,0(a5)
     4cc:	4641                	li	a2,16
     4ce:	4394                	lw	a3,0(a5)
     4d0:	0306f693          	andi	a3,a3,48
     4d4:	00c69b63          	bne	a3,a2,4ea <Standard_SetEndPointFeature+0x80>
     4d8:	8481a783          	lw	a5,-1976(gp) # 200002e8 <pUser_Standard_Requests>
     4dc:	4f9c                	lw	a5,24(a5)
     4de:	9782                	jalr	a5
     4e0:	4501                	li	a0,0
     4e2:	b98d                	j	154 <__riscv_restore_0>
     4e4:	650d                	lui	a0,0x3
     4e6:	8f69                	and	a4,a4,a0
     4e8:	b765                	j	490 <Standard_SetEndPointFeature+0x26>
     4ea:	c398                	sw	a4,0(a5)
     4ec:	b7cd                	j	4ce <Standard_SetEndPointFeature+0x64>
     4ee:	76f1                	lui	a3,0xffffc
     4f0:	f8f68693          	addi	a3,a3,-113 # ffffbf8f <_eusrstack+0xdfff6f8f>
     4f4:	8f75                	and	a4,a4,a3
     4f6:	0742                	slli	a4,a4,0x10
     4f8:	6685                	lui	a3,0x1
     4fa:	8341                	srli	a4,a4,0x10
     4fc:	8f35                	xor	a4,a4,a3
     4fe:	76e1                	lui	a3,0xffff8
     500:	08068693          	addi	a3,a3,128 # ffff8080 <_eusrstack+0xdfff3080>
     504:	8f55                	or	a4,a4,a3
     506:	0742                	slli	a4,a4,0x10
     508:	8341                	srli	a4,a4,0x10
     50a:	6641                	lui	a2,0x10
     50c:	c398                	sw	a4,0(a5)
     50e:	167d                	addi	a2,a2,-1
     510:	650d                	lui	a0,0x3
     512:	6585                	lui	a1,0x1
     514:	4394                	lw	a3,0(a5)
     516:	8ef1                	and	a3,a3,a2
     518:	8ee9                	and	a3,a3,a0
     51a:	fab68fe3          	beq	a3,a1,4d8 <Standard_SetEndPointFeature+0x6e>
     51e:	c398                	sw	a4,0(a5)
     520:	bfd5                	j	514 <Standard_SetEndPointFeature+0xaa>
     522:	8082                	ret

00000524 <Standard_SetDeviceFeature>:
     524:	c0dff2ef          	jal	t0,130 <__riscv_save_0>
     528:	8401a703          	lw	a4,-1984(gp) # 200002e0 <pInformation>
     52c:	371c                	lbu	a5,9(a4)
     52e:	0207e793          	ori	a5,a5,32
     532:	b71c                	sb	a5,9(a4)
     534:	8481a783          	lw	a5,-1976(gp) # 200002e8 <pUser_Standard_Requests>
     538:	4fdc                	lw	a5,28(a5)
     53a:	9782                	jalr	a5
     53c:	4501                	li	a0,0
     53e:	b919                	j	154 <__riscv_restore_0>

00000540 <Standard_GetDescriptorData>:
     540:	8401a703          	lw	a4,-1984(gp) # 200002e0 <pInformation>
     544:	2b3e                	lhu	a5,18(a4)
     546:	e511                	bnez	a0,552 <Standard_GetDescriptorData+0x12>
     548:	21ca                	lhu	a0,4(a1)
     54a:	8d1d                	sub	a0,a0,a5
     54c:	ab0a                	sh	a0,16(a4)
     54e:	4501                	li	a0,0
     550:	8082                	ret
     552:	4188                	lw	a0,0(a1)
     554:	953e                	add	a0,a0,a5
     556:	8082                	ret

00000558 <Post0_Process>:
     558:	bd9ff2ef          	jal	t0,130 <__riscv_save_0>
     55c:	200007b7          	lui	a5,0x20000
     560:	07c7c583          	lbu	a1,124(a5) # 2000007c <Device_Property+0x2c>
     564:	4501                	li	a0,0
     566:	2ef000ef          	jal	ra,1054 <SetEPRxCount>
     56a:	8401a783          	lw	a5,-1984(gp) # 200002e0 <pInformation>
     56e:	2788                	lbu	a0,8(a5)
     570:	47a1                	li	a5,8
     572:	00f51863          	bne	a0,a5,582 <Post0_Process+0x2a>
     576:	6705                	lui	a4,0x1
     578:	84e19723          	sh	a4,-1970(gp) # 200002ee <SaveRState>
     57c:	4741                	li	a4,16
     57e:	84e19823          	sh	a4,-1968(gp) # 200002f0 <SaveTState>
     582:	155d                	addi	a0,a0,-9
     584:	00153513          	seqz	a0,a0
     588:	b6f1                	j	154 <__riscv_restore_0>

0000058a <Setup0_Process>:
     58a:	ba7ff2ef          	jal	t0,130 <__riscv_save_0>
     58e:	8401a903          	lw	s2,-1984(gp) # 200002e0 <pInformation>
     592:	40006637          	lui	a2,0x40006
     596:	c5062783          	lw	a5,-944(a2) # 40005c50 <_eusrstack+0x20000c50>
     59a:	00894683          	lbu	a3,8(s2)
     59e:	4725                	li	a4,9
     5a0:	1141                	addi	sp,sp,-16
     5a2:	04e68563          	beq	a3,a4,5ec <Setup0_Process+0x62>
     5a6:	6441                	lui	s0,0x10
     5a8:	fff40713          	addi	a4,s0,-1 # ffff <_data_lma+0xc077>
     5ac:	200036b7          	lui	a3,0x20003
     5b0:	8ff9                	and	a5,a5,a4
     5b2:	0691                	addi	a3,a3,4
     5b4:	97b6                	add	a5,a5,a3
     5b6:	0786                	slli	a5,a5,0x1
     5b8:	4380                	lw	s0,0(a5)
     5ba:	8c79                	and	s0,s0,a4
     5bc:	0406                	slli	s0,s0,0x1
     5be:	9432                	add	s0,s0,a2
     5c0:	201c                	lbu	a5,0(s0)
     5c2:	00f90023          	sb	a5,0(s2)
     5c6:	301c                	lbu	a5,1(s0)
     5c8:	00f900a3          	sb	a5,1(s2)
     5cc:	204a                	lhu	a0,4(s0)
     5ce:	32b000ef          	jal	ra,10f8 <ByteSwap>
     5d2:	00a91123          	sh	a0,2(s2)
     5d6:	240a                	lhu	a0,8(s0)
     5d8:	8401a903          	lw	s2,-1984(gp) # 200002e0 <pInformation>
     5dc:	31d000ef          	jal	ra,10f8 <ByteSwap>
     5e0:	00a91223          	sh	a0,4(s2)
     5e4:	245a                	lhu	a4,12(s0)
     5e6:	8401a783          	lw	a5,-1984(gp) # 200002e0 <pInformation>
     5ea:	a3fa                	sh	a4,6(a5)
     5ec:	8401a783          	lw	a5,-1984(gp) # 200002e0 <pInformation>
     5f0:	4705                	li	a4,1
     5f2:	a798                	sb	a4,8(a5)
     5f4:	23fa                	lhu	a4,6(a5)
     5f6:	3380                	lbu	s0,1(a5)
     5f8:	0c071963          	bnez	a4,6ca <Setup0_Process+0x140>
     5fc:	2398                	lbu	a4,0(a5)
     5fe:	07f77713          	andi	a4,a4,127
     602:	e355                	bnez	a4,6a6 <Setup0_Process+0x11c>
     604:	4725                	li	a4,9
     606:	00e41563          	bne	s0,a4,610 <Setup0_Process+0x86>
     60a:	39c9                	jal	2dc <Standard_SetConfiguration>
     60c:	e125                	bnez	a0,66c <Setup0_Process+0xe2>
     60e:	a02d                	j	638 <Setup0_Process+0xae>
     610:	4715                	li	a4,5
     612:	04e41663          	bne	s0,a4,65e <Setup0_Process+0xd4>
     616:	00378703          	lb	a4,3(a5)
     61a:	00075963          	bgez	a4,62c <Setup0_Process+0xa2>
     61e:	47a1                	li	a5,8
     620:	8401a703          	lw	a4,-1984(gp) # 200002e0 <pInformation>
     624:	a71c                	sb	a5,8(a4)
     626:	3f0d                	jal	558 <Post0_Process>
     628:	0141                	addi	sp,sp,16
     62a:	b62d                	j	154 <__riscv_restore_0>
     62c:	23b8                	lbu	a4,2(a5)
     62e:	fb65                	bnez	a4,61e <Setup0_Process+0x94>
     630:	23da                	lhu	a4,4(a5)
     632:	f775                	bnez	a4,61e <Setup0_Process+0x94>
     634:	27bc                	lbu	a5,10(a5)
     636:	f7e5                	bnez	a5,61e <Setup0_Process+0x94>
     638:	400067b7          	lui	a5,0x40006
     63c:	c507a783          	lw	a5,-944(a5) # 40005c50 <_eusrstack+0x20000c50>
     640:	20003737          	lui	a4,0x20003
     644:	0709                	addi	a4,a4,2
     646:	07c2                	slli	a5,a5,0x10
     648:	83c1                	srli	a5,a5,0x10
     64a:	97ba                	add	a5,a5,a4
     64c:	0786                	slli	a5,a5,0x1
     64e:	0007a023          	sw	zero,0(a5)
     652:	03000713          	li	a4,48
     656:	84e19823          	sh	a4,-1968(gp) # 200002f0 <SaveTState>
     65a:	4799                	li	a5,6
     65c:	b7d1                	j	620 <Setup0_Process+0x96>
     65e:	470d                	li	a4,3
     660:	02e41563          	bne	s0,a4,68a <Setup0_Process+0x100>
     664:	33b4                	lbu	a3,3(a5)
     666:	4705                	li	a4,1
     668:	00e68d63          	beq	a3,a4,682 <Setup0_Process+0xf8>
     66c:	8441a783          	lw	a5,-1980(gp) # 200002e4 <pProperty>
     670:	8522                	mv	a0,s0
     672:	4bdc                	lw	a5,20(a5)
     674:	9782                	jalr	a5
     676:	470d                	li	a4,3
     678:	47a5                	li	a5,9
     67a:	fae503e3          	beq	a0,a4,620 <Setup0_Process+0x96>
     67e:	dd4d                	beqz	a0,638 <Setup0_Process+0xae>
     680:	bf79                	j	61e <Setup0_Process+0x94>
     682:	23de                	lhu	a5,4(a5)
     684:	f7e5                	bnez	a5,66c <Setup0_Process+0xe2>
     686:	3d79                	jal	524 <Standard_SetDeviceFeature>
     688:	b751                	j	60c <Setup0_Process+0x82>
     68a:	4705                	li	a4,1
     68c:	fee410e3          	bne	s0,a4,66c <Setup0_Process+0xe2>
     690:	33b8                	lbu	a4,3(a5)
     692:	fc871de3          	bne	a4,s0,66c <Setup0_Process+0xe2>
     696:	23da                	lhu	a4,4(a5)
     698:	fb71                	bnez	a4,66c <Setup0_Process+0xe2>
     69a:	379c                	lbu	a5,9(a5)
     69c:	0207f793          	andi	a5,a5,32
     6a0:	d7f1                	beqz	a5,66c <Setup0_Process+0xe2>
     6a2:	317d                	jal	350 <Standard_ClearFeature>
     6a4:	b7a5                	j	60c <Setup0_Process+0x82>
     6a6:	4785                	li	a5,1
     6a8:	00f71763          	bne	a4,a5,6b6 <Setup0_Process+0x12c>
     6ac:	47ad                	li	a5,11
     6ae:	faf41fe3          	bne	s0,a5,66c <Setup0_Process+0xe2>
     6b2:	3999                	jal	308 <Standard_SetInterface>
     6b4:	bfa1                	j	60c <Setup0_Process+0x82>
     6b6:	4689                	li	a3,2
     6b8:	fad71ae3          	bne	a4,a3,66c <Setup0_Process+0xe2>
     6bc:	fef403e3          	beq	s0,a5,6a2 <Setup0_Process+0x118>
     6c0:	478d                	li	a5,3
     6c2:	faf415e3          	bne	s0,a5,66c <Setup0_Process+0xe2>
     6c6:	3355                	jal	46a <Standard_SetEndPointFeature>
     6c8:	b791                	j	60c <Setup0_Process+0x82>
     6ca:	4719                	li	a4,6
     6cc:	02e41963          	bne	s0,a4,6fe <Setup0_Process+0x174>
     6d0:	2398                	lbu	a4,0(a5)
     6d2:	07f77713          	andi	a4,a4,127
     6d6:	eb71                	bnez	a4,7aa <Setup0_Process+0x220>
     6d8:	23bc                	lbu	a5,2(a5)
     6da:	4685                	li	a3,1
     6dc:	8441a703          	lw	a4,-1980(gp) # 200002e4 <pProperty>
     6e0:	00d79563          	bne	a5,a3,6ea <Setup0_Process+0x160>
     6e4:	4f5c                	lw	a5,28(a4)
     6e6:	c3f1                	beqz	a5,7aa <Setup0_Process+0x220>
     6e8:	a089                	j	72a <Setup0_Process+0x1a0>
     6ea:	4689                	li	a3,2
     6ec:	00d79463          	bne	a5,a3,6f4 <Setup0_Process+0x16a>
     6f0:	531c                	lw	a5,32(a4)
     6f2:	bfd5                	j	6e6 <Setup0_Process+0x15c>
     6f4:	468d                	li	a3,3
     6f6:	0ad79a63          	bne	a5,a3,7aa <Setup0_Process+0x220>
     6fa:	535c                	lw	a5,36(a4)
     6fc:	b7ed                	j	6e6 <Setup0_Process+0x15c>
     6fe:	e861                	bnez	s0,7ce <Setup0_Process+0x244>
     700:	23ba                	lhu	a4,2(a5)
     702:	e745                	bnez	a4,7aa <Setup0_Process+0x220>
     704:	43d8                	lw	a4,4(a5)
     706:	76c1                	lui	a3,0xffff0
     708:	0ff68693          	addi	a3,a3,255 # ffff00ff <_eusrstack+0xdffeb0ff>
     70c:	8f75                	and	a4,a4,a3
     70e:	000206b7          	lui	a3,0x20
     712:	08d71c63          	bne	a4,a3,7aa <Setup0_Process+0x220>
     716:	2398                	lbu	a4,0(a5)
     718:	07f77713          	andi	a4,a4,127
     71c:	ef05                	bnez	a4,754 <Setup0_Process+0x1ca>
     71e:	23de                	lhu	a5,4(a5)
     720:	e7c9                	bnez	a5,7aa <Setup0_Process+0x220>
     722:	000007b7          	lui	a5,0x0
     726:	1a078793          	addi	a5,a5,416 # 1a0 <Standard_GetStatus>
     72a:	8401a703          	lw	a4,-1984(gp) # 200002e0 <pInformation>
     72e:	4501                	li	a0,0
     730:	00071923          	sh	zero,18(a4) # 20003012 <__global_pointer$+0x2572>
     734:	cf1c                	sw	a5,24(a4)
     736:	9782                	jalr	a5
     738:	4501                	li	a0,0
     73a:	8401a783          	lw	a5,-1984(gp) # 200002e0 <pInformation>
     73e:	66c1                	lui	a3,0x10
     740:	16fd                	addi	a3,a3,-1
     742:	2b9a                	lhu	a4,16(a5)
     744:	06d70f63          	beq	a4,a3,7c2 <Setup0_Process+0x238>
     748:	4689                	li	a3,2
     74a:	00d50363          	beq	a0,a3,750 <Setup0_Process+0x1c6>
     74e:	ef69                	bnez	a4,828 <__stack_size+0x28>
     750:	4721                	li	a4,8
     752:	a88d                	j	7c4 <Setup0_Process+0x23a>
     754:	4685                	li	a3,1
     756:	00d71e63          	bne	a4,a3,772 <Setup0_Process+0x1e8>
     75a:	8441a703          	lw	a4,-1980(gp) # 200002e4 <pProperty>
     75e:	33c8                	lbu	a0,5(a5)
     760:	4581                	li	a1,0
     762:	4f18                	lw	a4,24(a4)
     764:	9702                	jalr	a4
     766:	e131                	bnez	a0,7aa <Setup0_Process+0x220>
     768:	8401a783          	lw	a5,-1984(gp) # 200002e0 <pInformation>
     76c:	27bc                	lbu	a5,10(a5)
     76e:	fbd5                	bnez	a5,722 <Setup0_Process+0x198>
     770:	a82d                	j	7aa <Setup0_Process+0x220>
     772:	4689                	li	a3,2
     774:	02d71b63          	bne	a4,a3,7aa <Setup0_Process+0x220>
     778:	33d8                	lbu	a4,5(a5)
     77a:	400066b7          	lui	a3,0x40006
     77e:	c0068693          	addi	a3,a3,-1024 # 40005c00 <_eusrstack+0x20000c00>
     782:	00f77613          	andi	a2,a4,15
     786:	00261793          	slli	a5,a2,0x2
     78a:	97b6                	add	a5,a5,a3
     78c:	439c                	lw	a5,0(a5)
     78e:	01871693          	slli	a3,a4,0x18
     792:	86e1                	srai	a3,a3,0x18
     794:	0206da63          	bgez	a3,7c8 <Setup0_Process+0x23e>
     798:	0307f793          	andi	a5,a5,48
     79c:	8141c683          	lbu	a3,-2028(gp) # 200002b4 <Device_Table>
     7a0:	00d67563          	bgeu	a2,a3,7aa <Setup0_Process+0x220>
     7a4:	07077713          	andi	a4,a4,112
     7a8:	d379                	beqz	a4,76e <Setup0_Process+0x1e4>
     7aa:	8401a703          	lw	a4,-1984(gp) # 200002e0 <pInformation>
     7ae:	8441a783          	lw	a5,-1980(gp) # 200002e4 <pProperty>
     7b2:	3308                	lbu	a0,1(a4)
     7b4:	4b9c                	lw	a5,16(a5)
     7b6:	9782                	jalr	a5
     7b8:	478d                	li	a5,3
     7ba:	f8f510e3          	bne	a0,a5,73a <Setup0_Process+0x1b0>
     7be:	8401a783          	lw	a5,-1984(gp) # 200002e0 <pInformation>
     7c2:	4725                	li	a4,9
     7c4:	a798                	sb	a4,8(a5)
     7c6:	b585                	j	626 <Setup0_Process+0x9c>
     7c8:	668d                	lui	a3,0x3
     7ca:	8ff5                	and	a5,a5,a3
     7cc:	bfc1                	j	79c <Setup0_Process+0x212>
     7ce:	4721                	li	a4,8
     7d0:	00e41b63          	bne	s0,a4,7e6 <Setup0_Process+0x25c>
     7d4:	239c                	lbu	a5,0(a5)
     7d6:	07f7f793          	andi	a5,a5,127
     7da:	fbe1                	bnez	a5,7aa <Setup0_Process+0x220>
     7dc:	000007b7          	lui	a5,0x0
     7e0:	16078793          	addi	a5,a5,352 # 160 <Standard_GetConfiguration>
     7e4:	b799                	j	72a <Setup0_Process+0x1a0>
     7e6:	4729                	li	a4,10
     7e8:	fce411e3          	bne	s0,a4,7aa <Setup0_Process+0x220>
     7ec:	2398                	lbu	a4,0(a5)
     7ee:	4685                	li	a3,1
     7f0:	07f77713          	andi	a4,a4,127
     7f4:	fad71be3          	bne	a4,a3,7aa <Setup0_Process+0x220>
     7f8:	27b8                	lbu	a4,10(a5)
     7fa:	db45                	beqz	a4,7aa <Setup0_Process+0x220>
     7fc:	23ba                	lhu	a4,2(a5)
     7fe:	f755                	bnez	a4,7aa <Setup0_Process+0x220>
     800:	43d8                	lw	a4,4(a5)
     802:	76c1                	lui	a3,0xffff0
     804:	0ff68693          	addi	a3,a3,255 # ffff00ff <_eusrstack+0xdffeb0ff>
     808:	8f75                	and	a4,a4,a3
     80a:	66c1                	lui	a3,0x10
     80c:	f8d71fe3          	bne	a4,a3,7aa <Setup0_Process+0x220>
     810:	8441a703          	lw	a4,-1980(gp) # 200002e4 <pProperty>
     814:	33c8                	lbu	a0,5(a5)
     816:	4581                	li	a1,0
     818:	4f18                	lw	a4,24(a4)
     81a:	9702                	jalr	a4
     81c:	f559                	bnez	a0,7aa <Setup0_Process+0x220>
     81e:	000007b7          	lui	a5,0x0
     822:	18078793          	addi	a5,a5,384 # 180 <Standard_GetInterface>
     826:	b711                	j	72a <Setup0_Process+0x1a0>
     828:	00078683          	lb	a3,0(a5)
     82c:	0406d163          	bgez	a3,86e <__stack_size+0x6e>
     830:	8441a683          	lw	a3,-1980(gp) # 200002e4 <pProperty>
     834:	23ee                	lhu	a1,6(a5)
     836:	02c6c603          	lbu	a2,44(a3) # 1002c <_data_lma+0xc0a4>
     83a:	c62e                	sw	a1,12(sp)
     83c:	4532                	lw	a0,12(sp)
     83e:	01061693          	slli	a3,a2,0x10
     842:	82c1                	srli	a3,a3,0x10
     844:	00e57763          	bgeu	a0,a4,852 <__stack_size+0x52>
     848:	4732                	lw	a4,12(sp)
     84a:	ab9a                	sh	a4,16(a5)
     84c:	abd6                	sh	a3,20(a5)
     84e:	32c5                	jal	22e <DataStageIn>
     850:	bbd9                	j	626 <Setup0_Process+0x9c>
     852:	feb77de3          	bgeu	a4,a1,84c <__stack_size+0x4c>
     856:	00d77563          	bgeu	a4,a3,860 <__stack_size+0x60>
     85a:	8201ac23          	sw	zero,-1992(gp) # 200002d8 <_edata>
     85e:	b7fd                	j	84c <__stack_size+0x4c>
     860:	02c76733          	rem	a4,a4,a2
     864:	f765                	bnez	a4,84c <__stack_size+0x4c>
     866:	4605                	li	a2,1
     868:	82c1ac23          	sw	a2,-1992(gp) # 200002d8 <_edata>
     86c:	b7c5                	j	84c <__stack_size+0x4c>
     86e:	470d                	li	a4,3
     870:	a798                	sb	a4,8(a5)
     872:	670d                	lui	a4,0x3
     874:	84e19723          	sh	a4,-1970(gp) # 200002ee <SaveRState>
     878:	b37d                	j	626 <Setup0_Process+0x9c>

0000087a <Out0_Process>:
     87a:	89dff2ef          	jal	t0,116 <__riscv_save_4>
     87e:	8401a403          	lw	s0,-1984(gp) # 200002e0 <pInformation>
     882:	44a1                	li	s1,8
     884:	241c                	lbu	a5,8(s0)
     886:	ffe78713          	addi	a4,a5,-2
     88a:	0fd77713          	andi	a4,a4,253
     88e:	c72d                	beqz	a4,8f8 <Out0_Process+0x7e>
     890:	ffd78713          	addi	a4,a5,-3
     894:	0fd77713          	andi	a4,a4,253
     898:	ef49                	bnez	a4,932 <Out0_Process+0xb8>
     89a:	4c1c                	lw	a5,24(s0)
     89c:	cb85                	beqz	a5,8cc <Out0_Process+0x52>
     89e:	2806                	lhu	s1,16(s0)
     8a0:	c0b9                	beqz	s1,8e6 <Out0_Process+0x6c>
     8a2:	285a                	lhu	a4,20(s0)
     8a4:	00977363          	bgeu	a4,s1,8aa <Out0_Process+0x30>
     8a8:	84ba                	mv	s1,a4
     8aa:	04c2                	slli	s1,s1,0x10
     8ac:	80c1                	srli	s1,s1,0x10
     8ae:	8526                	mv	a0,s1
     8b0:	9782                	jalr	a5
     8b2:	281e                	lhu	a5,16(s0)
     8b4:	89aa                	mv	s3,a0
     8b6:	4501                	li	a0,0
     8b8:	8f85                	sub	a5,a5,s1
     8ba:	a81e                	sh	a5,16(s0)
     8bc:	283e                	lhu	a5,18(s0)
     8be:	97a6                	add	a5,a5,s1
     8c0:	a83e                	sh	a5,18(s0)
     8c2:	2f99                	jal	1018 <GetEPRxAddr>
     8c4:	85aa                	mv	a1,a0
     8c6:	8626                	mv	a2,s1
     8c8:	854e                	mv	a0,s3
     8ca:	233d                	jal	df8 <PMAToUserBufferCopy>
     8cc:	281e                	lhu	a5,16(s0)
     8ce:	cf81                	beqz	a5,8e6 <Out0_Process+0x6c>
     8d0:	670d                	lui	a4,0x3
     8d2:	4581                	li	a1,0
     8d4:	4501                	li	a0,0
     8d6:	84e19723          	sh	a4,-1970(gp) # 200002ee <SaveRState>
     8da:	75c000ef          	jal	ra,1036 <SetEPTxCount>
     8de:	03000713          	li	a4,48
     8e2:	84e19823          	sh	a4,-1968(gp) # 200002f0 <SaveTState>
     8e6:	281e                	lhu	a5,16(s0)
     8e8:	2856                	lhu	a3,20(s0)
     8ea:	8401a703          	lw	a4,-1984(gp) # 200002e0 <pInformation>
     8ee:	00d7eb63          	bltu	a5,a3,904 <Out0_Process+0x8a>
     8f2:	478d                	li	a5,3
     8f4:	a71c                	sb	a5,8(a4)
     8f6:	2704                	lbu	s1,8(a4)
     8f8:	8401a783          	lw	a5,-1984(gp) # 200002e0 <pInformation>
     8fc:	a784                	sb	s1,8(a5)
     8fe:	39a9                	jal	558 <Post0_Process>
     900:	84bff06f          	j	14a <__riscv_restore_4>
     904:	c399                	beqz	a5,90a <Out0_Process+0x90>
     906:	4795                	li	a5,5
     908:	b7f5                	j	8f4 <Out0_Process+0x7a>
     90a:	4799                	li	a5,6
     90c:	a71c                	sb	a5,8(a4)
     90e:	400067b7          	lui	a5,0x40006
     912:	c507a783          	lw	a5,-944(a5) # 40005c50 <_eusrstack+0x20000c50>
     916:	200036b7          	lui	a3,0x20003
     91a:	0689                	addi	a3,a3,2
     91c:	07c2                	slli	a5,a5,0x10
     91e:	83c1                	srli	a5,a5,0x10
     920:	97b6                	add	a5,a5,a3
     922:	0786                	slli	a5,a5,0x1
     924:	0007a023          	sw	zero,0(a5)
     928:	03000693          	li	a3,48
     92c:	84d19823          	sh	a3,-1968(gp) # 200002f0 <SaveTState>
     930:	b7d9                	j	8f6 <Out0_Process+0x7c>
     932:	471d                	li	a4,7
     934:	44a1                	li	s1,8
     936:	fce791e3          	bne	a5,a4,8f8 <Out0_Process+0x7e>
     93a:	8441a783          	lw	a5,-1980(gp) # 200002e4 <pProperty>
     93e:	47dc                	lw	a5,12(a5)
     940:	9782                	jalr	a5
     942:	bf5d                	j	8f8 <Out0_Process+0x7e>

00000944 <SetDeviceAddress>:
     944:	8141c303          	lbu	t1,-2028(gp) # 200002b4 <Device_Table>
     948:	40006637          	lui	a2,0x40006
     94c:	65c1                	lui	a1,0x10
     94e:	6805                	lui	a6,0x1
     950:	68a1                	lui	a7,0x8
     952:	4701                	li	a4,0
     954:	c0060613          	addi	a2,a2,-1024 # 40005c00 <_eusrstack+0x20000c00>
     958:	15fd                	addi	a1,a1,-1
     95a:	f0f80813          	addi	a6,a6,-241 # f0f <SetEPRxValid+0x2b>
     95e:	08088893          	addi	a7,a7,128 # 8080 <_data_lma+0x40f8>
     962:	00676963          	bltu	a4,t1,974 <SetDeviceAddress+0x30>
     966:	08056513          	ori	a0,a0,128
     96a:	400067b7          	lui	a5,0x40006
     96e:	c4a7a623          	sw	a0,-948(a5) # 40005c4c <_eusrstack+0x20000c4c>
     972:	8082                	ret
     974:	00271693          	slli	a3,a4,0x2
     978:	96b2                	add	a3,a3,a2
     97a:	429c                	lw	a5,0(a3)
     97c:	8fed                	and	a5,a5,a1
     97e:	0107f7b3          	and	a5,a5,a6
     982:	8fd9                	or	a5,a5,a4
     984:	0117e7b3          	or	a5,a5,a7
     988:	c29c                	sw	a5,0(a3)
     98a:	0705                	addi	a4,a4,1
     98c:	bfd9                	j	962 <SetDeviceAddress+0x1e>

0000098e <In0_Process>:
     98e:	fa2ff2ef          	jal	t0,130 <__riscv_save_0>
     992:	8401a783          	lw	a5,-1984(gp) # 200002e0 <pInformation>
     996:	2794                	lbu	a3,8(a5)
     998:	ffe68713          	addi	a4,a3,-2 # 20002ffe <__global_pointer$+0x255e>
     99c:	0fd77713          	andi	a4,a4,253
     9a0:	ef01                	bnez	a4,9b8 <In0_Process+0x2a>
     9a2:	88dff0ef          	jal	ra,22e <DataStageIn>
     9a6:	8401a783          	lw	a5,-1984(gp) # 200002e0 <pInformation>
     9aa:	2798                	lbu	a4,8(a5)
     9ac:	8401a783          	lw	a5,-1984(gp) # 200002e0 <pInformation>
     9b0:	a798                	sb	a4,8(a5)
     9b2:	365d                	jal	558 <Post0_Process>
     9b4:	fa0ff06f          	j	154 <__riscv_restore_0>
     9b8:	4619                	li	a2,6
     9ba:	4721                	li	a4,8
     9bc:	fec698e3          	bne	a3,a2,9ac <In0_Process+0x1e>
     9c0:	3394                	lbu	a3,1(a5)
     9c2:	4715                	li	a4,5
     9c4:	00e69c63          	bne	a3,a4,9dc <In0_Process+0x4e>
     9c8:	2398                	lbu	a4,0(a5)
     9ca:	07f77713          	andi	a4,a4,127
     9ce:	e719                	bnez	a4,9dc <In0_Process+0x4e>
     9d0:	33a8                	lbu	a0,3(a5)
     9d2:	3f8d                	jal	944 <SetDeviceAddress>
     9d4:	8481a783          	lw	a5,-1976(gp) # 200002e8 <pUser_Standard_Requests>
     9d8:	539c                	lw	a5,32(a5)
     9da:	9782                	jalr	a5
     9dc:	8441a783          	lw	a5,-1980(gp) # 200002e4 <pProperty>
     9e0:	479c                	lw	a5,8(a5)
     9e2:	9782                	jalr	a5
     9e4:	4721                	li	a4,8
     9e6:	b7d9                	j	9ac <In0_Process+0x1e>

000009e8 <NOP_Process>:
     9e8:	8082                	ret

000009ea <USB_Init>:
     9ea:	f46ff2ef          	jal	t0,130 <__riscv_save_0>
     9ee:	88c18793          	addi	a5,gp,-1908 # 2000032c <Device_Info>
     9f2:	84f1a023          	sw	a5,-1984(gp) # 200002e0 <pInformation>
     9f6:	4709                	li	a4,2
     9f8:	a798                	sb	a4,8(a5)
     9fa:	20000737          	lui	a4,0x20000
     9fe:	05070693          	addi	a3,a4,80 # 20000050 <Device_Property>
     a02:	84d1a223          	sw	a3,-1980(gp) # 200002e4 <pProperty>
     a06:	200007b7          	lui	a5,0x20000
     a0a:	0a078793          	addi	a5,a5,160 # 200000a0 <User_Standard_Requests>
     a0e:	84f1a423          	sw	a5,-1976(gp) # 200002e8 <pUser_Standard_Requests>
     a12:	05072783          	lw	a5,80(a4)
     a16:	9782                	jalr	a5
     a18:	f3cff06f          	j	154 <__riscv_restore_0>

00000a1c <CTR_LP>:
     a1c:	eecff2ef          	jal	t0,108 <__riscv_save_10>
     a20:	1141                	addi	sp,sp,-16
     a22:	20000a37          	lui	s4,0x20000
     a26:	20000ab7          	lui	s5,0x20000
     a2a:	79e1                	lui	s3,0xffff8
     a2c:	00011723          	sh	zero,14(sp)
     a30:	018a0a13          	addi	s4,s4,24 # 20000018 <pEpInt_IN>
     a34:	034a8a93          	addi	s5,s5,52 # 20000034 <pEpInt_OUT>
     a38:	08098993          	addi	s3,s3,128 # ffff8080 <_eusrstack+0xdfff3080>
     a3c:	400065b7          	lui	a1,0x40006
     a40:	c445a783          	lw	a5,-956(a1) # 40005c44 <_eusrstack+0x20000c44>
     a44:	01079713          	slli	a4,a5,0x10
     a48:	8341                	srli	a4,a4,0x10
     a4a:	86e19223          	sh	a4,-1948(gp) # 20000304 <wIstr>
     a4e:	01079713          	slli	a4,a5,0x10
     a52:	16075763          	bgez	a4,bc0 <CTR_LP+0x1a4>
     a56:	8641d783          	lhu	a5,-1948(gp) # 20000304 <wIstr>
     a5a:	843a                	mv	s0,a4
     a5c:	8bbd                	andi	a5,a5,15
     a5e:	82f18f23          	sb	a5,-1986(gp) # 200002de <EPindex>
     a62:	c0058693          	addi	a3,a1,-1024
     a66:	30079663          	bnez	a5,d72 <CTR_LP+0x356>
     a6a:	c005a703          	lw	a4,-1024(a1)
     a6e:	84e18793          	addi	a5,gp,-1970 # 200002ee <SaveRState>
     a72:	0742                	slli	a4,a4,0x10
     a74:	8341                	srli	a4,a4,0x10
     a76:	a39a                	sh	a4,0(a5)
     a78:	239a                	lhu	a4,0(a5)
     a7a:	85018693          	addi	a3,gp,-1968 # 200002f0 <SaveTState>
     a7e:	03077713          	andi	a4,a4,48
     a82:	a29a                	sh	a4,0(a3)
     a84:	239a                	lhu	a4,0(a5)
     a86:	668d                	lui	a3,0x3
     a88:	6621                	lui	a2,0x8
     a8a:	8f75                	and	a4,a4,a3
     a8c:	a39a                	sh	a4,0(a5)
     a8e:	c005a703          	lw	a4,-1024(a1)
     a92:	67a5                	lui	a5,0x9
     a94:	fbf78793          	addi	a5,a5,-65 # 8fbf <_data_lma+0x5037>
     a98:	8f7d                	and	a4,a4,a5
     a9a:	c005a783          	lw	a5,-1024(a1)
     a9e:	66b1                	lui	a3,0xc
     aa0:	f8f68693          	addi	a3,a3,-113 # bf8f <_data_lma+0x8007>
     aa4:	8ff5                	and	a5,a5,a3
     aa6:	6689                	lui	a3,0x2
     aa8:	8fb5                	xor	a5,a5,a3
     aaa:	02074713          	xori	a4,a4,32
     aae:	01071693          	slli	a3,a4,0x10
     ab2:	08060613          	addi	a2,a2,128 # 8080 <_data_lma+0x40f8>
     ab6:	8f5d                	or	a4,a4,a5
     ab8:	8f51                	or	a4,a4,a2
     aba:	82c1                	srli	a3,a3,0x10
     abc:	c0e5a023          	sw	a4,-1024(a1)
     ac0:	0136e733          	or	a4,a3,s3
     ac4:	0742                	slli	a4,a4,0x10
     ac6:	84e18493          	addi	s1,gp,-1970 # 200002ee <SaveRState>
     aca:	85018913          	addi	s2,gp,-1968 # 200002f0 <SaveTState>
     ace:	40006637          	lui	a2,0x40006
     ad2:	02000593          	li	a1,32
     ad6:	8341                	srli	a4,a4,0x10
     ad8:	c0062683          	lw	a3,-1024(a2) # 40005c00 <_eusrstack+0x20000c00>
     adc:	0306f693          	andi	a3,a3,48
     ae0:	0eb69363          	bne	a3,a1,bc6 <CTR_LP+0x1aa>
     ae4:	0137e7b3          	or	a5,a5,s3
     ae8:	66c1                	lui	a3,0x10
     aea:	07c2                	slli	a5,a5,0x10
     aec:	40006637          	lui	a2,0x40006
     af0:	16fd                	addi	a3,a3,-1
     af2:	650d                	lui	a0,0x3
     af4:	6589                	lui	a1,0x2
     af6:	83c1                	srli	a5,a5,0x10
     af8:	c0062703          	lw	a4,-1024(a2) # 40005c00 <_eusrstack+0x20000c00>
     afc:	c0060413          	addi	s0,a2,-1024
     b00:	8f75                	and	a4,a4,a3
     b02:	8f69                	and	a4,a4,a0
     b04:	0cb71463          	bne	a4,a1,bcc <CTR_LP+0x1b0>
     b08:	8641d783          	lhu	a5,-1948(gp) # 20000304 <wIstr>
     b0c:	8bc1                	andi	a5,a5,16
     b0e:	ebe1                	bnez	a5,bde <CTR_LP+0x1c2>
     b10:	401c                	lw	a5,0(s0)
     b12:	69a5                	lui	s3,0x9
     b14:	f0f98713          	addi	a4,s3,-241 # 8f0f <_data_lma+0x4f87>
     b18:	8ff9                	and	a5,a5,a4
     b1a:	c01c                	sw	a5,0(s0)
     b1c:	3d8d                	jal	98e <In0_Process>
     b1e:	4018                	lw	a4,0(s0)
     b20:	4014                	lw	a3,0(s0)
     b22:	67b1                	lui	a5,0xc
     b24:	f8f78793          	addi	a5,a5,-113 # bf8f <_data_lma+0x8007>
     b28:	8ff5                	and	a5,a5,a3
     b2a:	2096                	lhu	a3,0(s1)
     b2c:	fbf98993          	addi	s3,s3,-65
     b30:	01377733          	and	a4,a4,s3
     b34:	01369613          	slli	a2,a3,0x13
     b38:	00065463          	bgez	a2,b40 <CTR_LP+0x124>
     b3c:	6685                	lui	a3,0x1
     b3e:	8fb5                	xor	a5,a5,a3
     b40:	2096                	lhu	a3,0(s1)
     b42:	01269613          	slli	a2,a3,0x12
     b46:	00065463          	bgez	a2,b4e <CTR_LP+0x132>
     b4a:	6689                	lui	a3,0x2
     b4c:	8fb5                	xor	a5,a5,a3
     b4e:	00095683          	lhu	a3,0(s2)
     b52:	8ac1                	andi	a3,a3,16
     b54:	c299                	beqz	a3,b5a <CTR_LP+0x13e>
     b56:	01074713          	xori	a4,a4,16
     b5a:	00095683          	lhu	a3,0(s2)
     b5e:	0206f693          	andi	a3,a3,32
     b62:	c299                	beqz	a3,b68 <CTR_LP+0x14c>
     b64:	02074713          	xori	a4,a4,32
     b68:	6621                	lui	a2,0x8
     b6a:	01071693          	slli	a3,a4,0x10
     b6e:	08060613          	addi	a2,a2,128 # 8080 <_data_lma+0x40f8>
     b72:	8f5d                	or	a4,a4,a5
     b74:	8f51                	or	a4,a4,a2
     b76:	40006637          	lui	a2,0x40006
     b7a:	c0e62023          	sw	a4,-1024(a2) # 40005c00 <_eusrstack+0x20000c00>
     b7e:	7761                	lui	a4,0xffff8
     b80:	82c1                	srli	a3,a3,0x10
     b82:	08070713          	addi	a4,a4,128 # ffff8080 <_eusrstack+0xdfff3080>
     b86:	8f55                	or	a4,a4,a3
     b88:	0742                	slli	a4,a4,0x10
     b8a:	8341                	srli	a4,a4,0x10
     b8c:	c0062683          	lw	a3,-1024(a2)
     b90:	00095583          	lhu	a1,0(s2)
     b94:	0306f693          	andi	a3,a3,48
     b98:	02b69d63          	bne	a3,a1,bd2 <CTR_LP+0x1b6>
     b9c:	7761                	lui	a4,0xffff8
     b9e:	08070713          	addi	a4,a4,128 # ffff8080 <_eusrstack+0xdfff3080>
     ba2:	8fd9                	or	a5,a5,a4
     ba4:	66c1                	lui	a3,0x10
     ba6:	07c2                	slli	a5,a5,0x10
     ba8:	40006637          	lui	a2,0x40006
     bac:	16fd                	addi	a3,a3,-1
     bae:	650d                	lui	a0,0x3
     bb0:	83c1                	srli	a5,a5,0x10
     bb2:	c0062703          	lw	a4,-1024(a2) # 40005c00 <_eusrstack+0x20000c00>
     bb6:	208e                	lhu	a1,0(s1)
     bb8:	8f75                	and	a4,a4,a3
     bba:	8f69                	and	a4,a4,a0
     bbc:	00b71e63          	bne	a4,a1,bd8 <CTR_LP+0x1bc>
     bc0:	0141                	addi	sp,sp,16
     bc2:	d7eff06f          	j	140 <__riscv_restore_10>
     bc6:	c0e62023          	sw	a4,-1024(a2)
     bca:	b739                	j	ad8 <CTR_LP+0xbc>
     bcc:	c0f62023          	sw	a5,-1024(a2)
     bd0:	b725                	j	af8 <CTR_LP+0xdc>
     bd2:	c0e62023          	sw	a4,-1024(a2)
     bd6:	bf5d                	j	b8c <CTR_LP+0x170>
     bd8:	c0f62023          	sw	a5,-1024(a2)
     bdc:	bfd9                	j	bb2 <CTR_LP+0x196>
     bde:	401c                	lw	a5,0(s0)
     be0:	6b85                	lui	s7,0x1
     be2:	07c2                	slli	a5,a5,0x10
     be4:	83c1                	srli	a5,a5,0x10
     be6:	877c                	sh	a5,14(sp)
     be8:	873c                	lhu	a5,14(sp)
     bea:	01479713          	slli	a4,a5,0x14
     bee:	0c075063          	bgez	a4,cae <CTR_LP+0x292>
     bf2:	401c                	lw	a5,0(s0)
     bf4:	f8fb8713          	addi	a4,s7,-113 # f8f <ClearDTOG_TX+0x5>
     bf8:	8ff9                	and	a5,a5,a4
     bfa:	c01c                	sw	a5,0(s0)
     bfc:	98fff0ef          	jal	ra,58a <Setup0_Process>
     c00:	4018                	lw	a4,0(s0)
     c02:	67a5                	lui	a5,0x9
     c04:	fbf78793          	addi	a5,a5,-65 # 8fbf <_data_lma+0x5037>
     c08:	4014                	lw	a3,0(s0)
     c0a:	8f7d                	and	a4,a4,a5
     c0c:	67b1                	lui	a5,0xc
     c0e:	f8f78793          	addi	a5,a5,-113 # bf8f <_data_lma+0x8007>
     c12:	8ff5                	and	a5,a5,a3
     c14:	2096                	lhu	a3,0(s1)
     c16:	01369613          	slli	a2,a3,0x13
     c1a:	00065463          	bgez	a2,c22 <CTR_LP+0x206>
     c1e:	0177c7b3          	xor	a5,a5,s7
     c22:	2096                	lhu	a3,0(s1)
     c24:	01269613          	slli	a2,a3,0x12
     c28:	00065463          	bgez	a2,c30 <CTR_LP+0x214>
     c2c:	6689                	lui	a3,0x2
     c2e:	8fb5                	xor	a5,a5,a3
     c30:	00095683          	lhu	a3,0(s2)
     c34:	8ac1                	andi	a3,a3,16
     c36:	c299                	beqz	a3,c3c <CTR_LP+0x220>
     c38:	01074713          	xori	a4,a4,16
     c3c:	00095683          	lhu	a3,0(s2)
     c40:	0206f693          	andi	a3,a3,32
     c44:	c299                	beqz	a3,c4a <CTR_LP+0x22e>
     c46:	02074713          	xori	a4,a4,32
     c4a:	6621                	lui	a2,0x8
     c4c:	01071693          	slli	a3,a4,0x10
     c50:	08060613          	addi	a2,a2,128 # 8080 <_data_lma+0x40f8>
     c54:	8f5d                	or	a4,a4,a5
     c56:	8f51                	or	a4,a4,a2
     c58:	40006637          	lui	a2,0x40006
     c5c:	c0e62023          	sw	a4,-1024(a2) # 40005c00 <_eusrstack+0x20000c00>
     c60:	7761                	lui	a4,0xffff8
     c62:	82c1                	srli	a3,a3,0x10
     c64:	08070713          	addi	a4,a4,128 # ffff8080 <_eusrstack+0xdfff3080>
     c68:	8f55                	or	a4,a4,a3
     c6a:	0742                	slli	a4,a4,0x10
     c6c:	8341                	srli	a4,a4,0x10
     c6e:	c0062683          	lw	a3,-1024(a2)
     c72:	00095583          	lhu	a1,0(s2)
     c76:	0306f693          	andi	a3,a3,48
     c7a:	02b69763          	bne	a3,a1,ca8 <CTR_LP+0x28c>
     c7e:	7761                	lui	a4,0xffff8
     c80:	08070713          	addi	a4,a4,128 # ffff8080 <_eusrstack+0xdfff3080>
     c84:	8fd9                	or	a5,a5,a4
     c86:	66c1                	lui	a3,0x10
     c88:	07c2                	slli	a5,a5,0x10
     c8a:	40006637          	lui	a2,0x40006
     c8e:	16fd                	addi	a3,a3,-1
     c90:	650d                	lui	a0,0x3
     c92:	83c1                	srli	a5,a5,0x10
     c94:	c0062703          	lw	a4,-1024(a2) # 40005c00 <_eusrstack+0x20000c00>
     c98:	208e                	lhu	a1,0(s1)
     c9a:	8f75                	and	a4,a4,a3
     c9c:	8f69                	and	a4,a4,a0
     c9e:	f2b701e3          	beq	a4,a1,bc0 <CTR_LP+0x1a4>
     ca2:	c0f62023          	sw	a5,-1024(a2)
     ca6:	b7fd                	j	c94 <CTR_LP+0x278>
     ca8:	c0e62023          	sw	a4,-1024(a2)
     cac:	b7c9                	j	c6e <CTR_LP+0x252>
     cae:	873c                	lhu	a5,14(sp)
     cb0:	07c2                	slli	a5,a5,0x10
     cb2:	87c1                	srai	a5,a5,0x10
     cb4:	d807d4e3          	bgez	a5,a3c <CTR_LP+0x20>
     cb8:	401c                	lw	a5,0(s0)
     cba:	f8fb8713          	addi	a4,s7,-113
     cbe:	8ff9                	and	a5,a5,a4
     cc0:	c01c                	sw	a5,0(s0)
     cc2:	3e65                	jal	87a <Out0_Process>
     cc4:	4018                	lw	a4,0(s0)
     cc6:	67a5                	lui	a5,0x9
     cc8:	fbf78793          	addi	a5,a5,-65 # 8fbf <_data_lma+0x5037>
     ccc:	4014                	lw	a3,0(s0)
     cce:	8f7d                	and	a4,a4,a5
     cd0:	67b1                	lui	a5,0xc
     cd2:	f8f78793          	addi	a5,a5,-113 # bf8f <_data_lma+0x8007>
     cd6:	8ff5                	and	a5,a5,a3
     cd8:	2096                	lhu	a3,0(s1)
     cda:	01369613          	slli	a2,a3,0x13
     cde:	00065463          	bgez	a2,ce6 <CTR_LP+0x2ca>
     ce2:	0177c7b3          	xor	a5,a5,s7
     ce6:	2096                	lhu	a3,0(s1)
     ce8:	01269613          	slli	a2,a3,0x12
     cec:	00065463          	bgez	a2,cf4 <CTR_LP+0x2d8>
     cf0:	6689                	lui	a3,0x2
     cf2:	8fb5                	xor	a5,a5,a3
     cf4:	00095683          	lhu	a3,0(s2)
     cf8:	8ac1                	andi	a3,a3,16
     cfa:	c299                	beqz	a3,d00 <CTR_LP+0x2e4>
     cfc:	01074713          	xori	a4,a4,16
     d00:	00095683          	lhu	a3,0(s2)
     d04:	0206f693          	andi	a3,a3,32
     d08:	c299                	beqz	a3,d0e <CTR_LP+0x2f2>
     d0a:	02074713          	xori	a4,a4,32
     d0e:	6621                	lui	a2,0x8
     d10:	01071693          	slli	a3,a4,0x10
     d14:	08060613          	addi	a2,a2,128 # 8080 <_data_lma+0x40f8>
     d18:	8f5d                	or	a4,a4,a5
     d1a:	8f51                	or	a4,a4,a2
     d1c:	40006637          	lui	a2,0x40006
     d20:	c0e62023          	sw	a4,-1024(a2) # 40005c00 <_eusrstack+0x20000c00>
     d24:	7761                	lui	a4,0xffff8
     d26:	82c1                	srli	a3,a3,0x10
     d28:	08070713          	addi	a4,a4,128 # ffff8080 <_eusrstack+0xdfff3080>
     d2c:	8f55                	or	a4,a4,a3
     d2e:	0742                	slli	a4,a4,0x10
     d30:	8341                	srli	a4,a4,0x10
     d32:	c0062683          	lw	a3,-1024(a2)
     d36:	00095583          	lhu	a1,0(s2)
     d3a:	0306f693          	andi	a3,a3,48
     d3e:	02b69763          	bne	a3,a1,d6c <CTR_LP+0x350>
     d42:	7761                	lui	a4,0xffff8
     d44:	08070713          	addi	a4,a4,128 # ffff8080 <_eusrstack+0xdfff3080>
     d48:	8fd9                	or	a5,a5,a4
     d4a:	66c1                	lui	a3,0x10
     d4c:	07c2                	slli	a5,a5,0x10
     d4e:	40006637          	lui	a2,0x40006
     d52:	16fd                	addi	a3,a3,-1
     d54:	650d                	lui	a0,0x3
     d56:	83c1                	srli	a5,a5,0x10
     d58:	c0062703          	lw	a4,-1024(a2) # 40005c00 <_eusrstack+0x20000c00>
     d5c:	208e                	lhu	a1,0(s1)
     d5e:	8f75                	and	a4,a4,a3
     d60:	8f69                	and	a4,a4,a0
     d62:	e4b70fe3          	beq	a4,a1,bc0 <CTR_LP+0x1a4>
     d66:	c0f62023          	sw	a5,-1024(a2)
     d6a:	b7fd                	j	d58 <CTR_LP+0x33c>
     d6c:	c0e62023          	sw	a4,-1024(a2)
     d70:	b7c9                	j	d32 <CTR_LP+0x316>
     d72:	00279713          	slli	a4,a5,0x2
     d76:	9736                	add	a4,a4,a3
     d78:	4314                	lw	a3,0(a4)
     d7a:	06c2                	slli	a3,a3,0x10
     d7c:	82c1                	srli	a3,a3,0x10
     d7e:	8774                	sh	a3,14(sp)
     d80:	8734                	lhu	a3,14(sp)
     d82:	06c2                	slli	a3,a3,0x10
     d84:	86c1                	srai	a3,a3,0x10
     d86:	0006dd63          	bgez	a3,da0 <CTR_LP+0x384>
     d8a:	17fd                	addi	a5,a5,-1
     d8c:	4314                	lw	a3,0(a4)
     d8e:	078a                	slli	a5,a5,0x2
     d90:	6605                	lui	a2,0x1
     d92:	97d6                	add	a5,a5,s5
     d94:	f8f60613          	addi	a2,a2,-113 # f8f <ClearDTOG_TX+0x5>
     d98:	439c                	lw	a5,0(a5)
     d9a:	8ef1                	and	a3,a3,a2
     d9c:	c314                	sw	a3,0(a4)
     d9e:	9782                	jalr	a5
     da0:	873c                	lhu	a5,14(sp)
     da2:	0807f793          	andi	a5,a5,128
     da6:	c8078be3          	beqz	a5,a3c <CTR_LP+0x20>
     daa:	83e1c783          	lbu	a5,-1986(gp) # 200002de <EPindex>
     dae:	400066b7          	lui	a3,0x40006
     db2:	c0068693          	addi	a3,a3,-1024 # 40005c00 <_eusrstack+0x20000c00>
     db6:	00279713          	slli	a4,a5,0x2
     dba:	9736                	add	a4,a4,a3
     dbc:	17fd                	addi	a5,a5,-1
     dbe:	4314                	lw	a3,0(a4)
     dc0:	078a                	slli	a5,a5,0x2
     dc2:	97d2                	add	a5,a5,s4
     dc4:	6625                	lui	a2,0x9
     dc6:	f0f60613          	addi	a2,a2,-241 # 8f0f <_data_lma+0x4f87>
     dca:	439c                	lw	a5,0(a5)
     dcc:	8ef1                	and	a3,a3,a2
     dce:	c314                	sw	a3,0(a4)
     dd0:	9782                	jalr	a5
     dd2:	b1ad                	j	a3c <CTR_LP+0x20>

00000dd4 <UserToPMABufferCopy>:
     dd4:	200037b7          	lui	a5,0x20003
     dd8:	0605                	addi	a2,a2,1
     dda:	95be                	add	a1,a1,a5
     ddc:	8605                	srai	a2,a2,0x1
     dde:	0586                	slli	a1,a1,0x1
     de0:	e211                	bnez	a2,de4 <UserToPMABufferCopy+0x10>
     de2:	8082                	ret
     de4:	311c                	lbu	a5,1(a0)
     de6:	2118                	lbu	a4,0(a0)
     de8:	0591                	addi	a1,a1,4
     dea:	07a2                	slli	a5,a5,0x8
     dec:	8fd9                	or	a5,a5,a4
     dee:	fef59e23          	sh	a5,-4(a1) # 1ffc <RTC_IRQHandler+0x4>
     df2:	0509                	addi	a0,a0,2
     df4:	167d                	addi	a2,a2,-1
     df6:	b7ed                	j	de0 <UserToPMABufferCopy+0xc>

00000df8 <PMAToUserBufferCopy>:
     df8:	200037b7          	lui	a5,0x20003
     dfc:	0605                	addi	a2,a2,1
     dfe:	95be                	add	a1,a1,a5
     e00:	8605                	srai	a2,a2,0x1
     e02:	0586                	slli	a1,a1,0x1
     e04:	e211                	bnez	a2,e08 <PMAToUserBufferCopy+0x10>
     e06:	8082                	ret
     e08:	419c                	lw	a5,0(a1)
     e0a:	0509                	addi	a0,a0,2
     e0c:	167d                	addi	a2,a2,-1
     e0e:	fef51f23          	sh	a5,-2(a0) # 2ffe <_printf_i+0x90>
     e12:	0591                	addi	a1,a1,4
     e14:	bfc5                	j	e04 <PMAToUserBufferCopy+0xc>

00000e16 <SetBTABLE>:
     e16:	9961                	andi	a0,a0,-8
     e18:	0542                	slli	a0,a0,0x10
     e1a:	8141                	srli	a0,a0,0x10
     e1c:	400067b7          	lui	a5,0x40006
     e20:	c4a7a823          	sw	a0,-944(a5) # 40005c50 <_eusrstack+0x20000c50>
     e24:	8082                	ret

00000e26 <SetEPType>:
     e26:	400067b7          	lui	a5,0x40006
     e2a:	c0078793          	addi	a5,a5,-1024 # 40005c00 <_eusrstack+0x20000c00>
     e2e:	050a                	slli	a0,a0,0x2
     e30:	953e                	add	a0,a0,a5
     e32:	411c                	lw	a5,0(a0)
     e34:	7765                	lui	a4,0xffff9
     e36:	98f70713          	addi	a4,a4,-1649 # ffff898f <_eusrstack+0xdfff398f>
     e3a:	8ff9                	and	a5,a5,a4
     e3c:	8ddd                	or	a1,a1,a5
     e3e:	05c2                	slli	a1,a1,0x10
     e40:	81c1                	srli	a1,a1,0x10
     e42:	c10c                	sw	a1,0(a0)
     e44:	8082                	ret

00000e46 <SetEPTxStatus>:
     e46:	400067b7          	lui	a5,0x40006
     e4a:	c0078793          	addi	a5,a5,-1024 # 40005c00 <_eusrstack+0x20000c00>
     e4e:	050a                	slli	a0,a0,0x2
     e50:	953e                	add	a0,a0,a5
     e52:	411c                	lw	a5,0(a0)
     e54:	7765                	lui	a4,0xffff9
     e56:	fbf70713          	addi	a4,a4,-65 # ffff8fbf <_eusrstack+0xdfff3fbf>
     e5a:	8ff9                	and	a5,a5,a4
     e5c:	07c2                	slli	a5,a5,0x10
     e5e:	0105f713          	andi	a4,a1,16
     e62:	83c1                	srli	a5,a5,0x10
     e64:	c319                	beqz	a4,e6a <SetEPTxStatus+0x24>
     e66:	0107c793          	xori	a5,a5,16
     e6a:	0205f713          	andi	a4,a1,32
     e6e:	c319                	beqz	a4,e74 <SetEPTxStatus+0x2e>
     e70:	0207c793          	xori	a5,a5,32
     e74:	7761                	lui	a4,0xffff8
     e76:	08070713          	addi	a4,a4,128 # ffff8080 <_eusrstack+0xdfff3080>
     e7a:	8fd9                	or	a5,a5,a4
     e7c:	07c2                	slli	a5,a5,0x10
     e7e:	83c1                	srli	a5,a5,0x10
     e80:	c11c                	sw	a5,0(a0)
     e82:	4118                	lw	a4,0(a0)
     e84:	03077713          	andi	a4,a4,48
     e88:	feb71ce3          	bne	a4,a1,e80 <SetEPTxStatus+0x3a>
     e8c:	8082                	ret

00000e8e <SetEPRxStatus>:
     e8e:	400067b7          	lui	a5,0x40006
     e92:	c0078793          	addi	a5,a5,-1024 # 40005c00 <_eusrstack+0x20000c00>
     e96:	050a                	slli	a0,a0,0x2
     e98:	953e                	add	a0,a0,a5
     e9a:	411c                	lw	a5,0(a0)
     e9c:	7771                	lui	a4,0xffffc
     e9e:	f8f70713          	addi	a4,a4,-113 # ffffbf8f <_eusrstack+0xdfff6f8f>
     ea2:	8ff9                	and	a5,a5,a4
     ea4:	07c2                	slli	a5,a5,0x10
     ea6:	01359713          	slli	a4,a1,0x13
     eaa:	83c1                	srli	a5,a5,0x10
     eac:	00075463          	bgez	a4,eb4 <SetEPRxStatus+0x26>
     eb0:	6705                	lui	a4,0x1
     eb2:	8fb9                	xor	a5,a5,a4
     eb4:	01259713          	slli	a4,a1,0x12
     eb8:	00075463          	bgez	a4,ec0 <SetEPRxStatus+0x32>
     ebc:	6709                	lui	a4,0x2
     ebe:	8fb9                	xor	a5,a5,a4
     ec0:	7761                	lui	a4,0xffff8
     ec2:	08070713          	addi	a4,a4,128 # ffff8080 <_eusrstack+0xdfff3080>
     ec6:	8fd9                	or	a5,a5,a4
     ec8:	07c2                	slli	a5,a5,0x10
     eca:	83c1                	srli	a5,a5,0x10
     ecc:	66c1                	lui	a3,0x10
     ece:	c11c                	sw	a5,0(a0)
     ed0:	16fd                	addi	a3,a3,-1
     ed2:	660d                	lui	a2,0x3
     ed4:	4118                	lw	a4,0(a0)
     ed6:	8f75                	and	a4,a4,a3
     ed8:	8f71                	and	a4,a4,a2
     eda:	00b71363          	bne	a4,a1,ee0 <SetEPRxStatus+0x52>
     ede:	8082                	ret
     ee0:	c11c                	sw	a5,0(a0)
     ee2:	bfcd                	j	ed4 <SetEPRxStatus+0x46>

00000ee4 <SetEPRxValid>:
     ee4:	400067b7          	lui	a5,0x40006
     ee8:	c0078793          	addi	a5,a5,-1024 # 40005c00 <_eusrstack+0x20000c00>
     eec:	050a                	slli	a0,a0,0x2
     eee:	953e                	add	a0,a0,a5
     ef0:	411c                	lw	a5,0(a0)
     ef2:	7771                	lui	a4,0xffffc
     ef4:	f8f70713          	addi	a4,a4,-113 # ffffbf8f <_eusrstack+0xdfff6f8f>
     ef8:	8ff9                	and	a5,a5,a4
     efa:	07c2                	slli	a5,a5,0x10
     efc:	670d                	lui	a4,0x3
     efe:	83c1                	srli	a5,a5,0x10
     f00:	8fb9                	xor	a5,a5,a4
     f02:	7761                	lui	a4,0xffff8
     f04:	08070713          	addi	a4,a4,128 # ffff8080 <_eusrstack+0xdfff3080>
     f08:	8fd9                	or	a5,a5,a4
     f0a:	07c2                	slli	a5,a5,0x10
     f0c:	83c1                	srli	a5,a5,0x10
     f0e:	66c1                	lui	a3,0x10
     f10:	c11c                	sw	a5,0(a0)
     f12:	16fd                	addi	a3,a3,-1
     f14:	660d                	lui	a2,0x3
     f16:	4118                	lw	a4,0(a0)
     f18:	8f75                	and	a4,a4,a3
     f1a:	8f71                	and	a4,a4,a2
     f1c:	00c71363          	bne	a4,a2,f22 <SetEPRxValid+0x3e>
     f20:	8082                	ret
     f22:	c11c                	sw	a5,0(a0)
     f24:	bfcd                	j	f16 <SetEPRxValid+0x32>

00000f26 <ClearEP_KIND>:
     f26:	400067b7          	lui	a5,0x40006
     f2a:	c0078793          	addi	a5,a5,-1024 # 40005c00 <_eusrstack+0x20000c00>
     f2e:	050a                	slli	a0,a0,0x2
     f30:	953e                	add	a0,a0,a5
     f32:	411c                	lw	a5,0(a0)
     f34:	6705                	lui	a4,0x1
     f36:	e0f70713          	addi	a4,a4,-497 # e0f <PMAToUserBufferCopy+0x17>
     f3a:	8ff9                	and	a5,a5,a4
     f3c:	7761                	lui	a4,0xffff8
     f3e:	08070713          	addi	a4,a4,128 # ffff8080 <_eusrstack+0xdfff3080>
     f42:	8fd9                	or	a5,a5,a4
     f44:	07c2                	slli	a5,a5,0x10
     f46:	83c1                	srli	a5,a5,0x10
     f48:	c11c                	sw	a5,0(a0)
     f4a:	8082                	ret

00000f4c <Clear_Status_Out>:
     f4c:	9e4ff2ef          	jal	t0,130 <__riscv_save_0>
     f50:	3fd9                	jal	f26 <ClearEP_KIND>
     f52:	a02ff06f          	j	154 <__riscv_restore_0>

00000f56 <ClearDTOG_RX>:
     f56:	400067b7          	lui	a5,0x40006
     f5a:	c0078793          	addi	a5,a5,-1024 # 40005c00 <_eusrstack+0x20000c00>
     f5e:	050a                	slli	a0,a0,0x2
     f60:	953e                	add	a0,a0,a5
     f62:	4114                	lw	a3,0(a0)
     f64:	67c1                	lui	a5,0x10
     f66:	fff78713          	addi	a4,a5,-1 # ffff <_data_lma+0xc077>
     f6a:	01169793          	slli	a5,a3,0x11
     f6e:	0007dd63          	bgez	a5,f88 <ClearDTOG_RX+0x32>
     f72:	411c                	lw	a5,0(a0)
     f74:	8ff9                	and	a5,a5,a4
     f76:	6705                	lui	a4,0x1
     f78:	f0f70713          	addi	a4,a4,-241 # f0f <SetEPRxValid+0x2b>
     f7c:	8ff9                	and	a5,a5,a4
     f7e:	6731                	lui	a4,0xc
     f80:	08070713          	addi	a4,a4,128 # c080 <_data_lma+0x80f8>
     f84:	8fd9                	or	a5,a5,a4
     f86:	c11c                	sw	a5,0(a0)
     f88:	8082                	ret

00000f8a <ClearDTOG_TX>:
     f8a:	400067b7          	lui	a5,0x40006
     f8e:	c0078793          	addi	a5,a5,-1024 # 40005c00 <_eusrstack+0x20000c00>
     f92:	050a                	slli	a0,a0,0x2
     f94:	953e                	add	a0,a0,a5
     f96:	411c                	lw	a5,0(a0)
     f98:	0407f793          	andi	a5,a5,64
     f9c:	cf91                	beqz	a5,fb8 <ClearDTOG_TX+0x2e>
     f9e:	411c                	lw	a5,0(a0)
     fa0:	6741                	lui	a4,0x10
     fa2:	177d                	addi	a4,a4,-1
     fa4:	8ff9                	and	a5,a5,a4
     fa6:	6705                	lui	a4,0x1
     fa8:	f0f70713          	addi	a4,a4,-241 # f0f <SetEPRxValid+0x2b>
     fac:	8ff9                	and	a5,a5,a4
     fae:	6721                	lui	a4,0x8
     fb0:	0c070713          	addi	a4,a4,192 # 80c0 <_data_lma+0x4138>
     fb4:	8fd9                	or	a5,a5,a4
     fb6:	c11c                	sw	a5,0(a0)
     fb8:	8082                	ret

00000fba <SetEPTxAddr>:
     fba:	400067b7          	lui	a5,0x40006
     fbe:	c507a783          	lw	a5,-944(a5) # 40005c50 <_eusrstack+0x20000c50>
     fc2:	050e                	slli	a0,a0,0x3
     fc4:	8185                	srli	a1,a1,0x1
     fc6:	07c2                	slli	a5,a5,0x10
     fc8:	83c1                	srli	a5,a5,0x10
     fca:	953e                	add	a0,a0,a5
     fcc:	200037b7          	lui	a5,0x20003
     fd0:	953e                	add	a0,a0,a5
     fd2:	0506                	slli	a0,a0,0x1
     fd4:	0586                	slli	a1,a1,0x1
     fd6:	c10c                	sw	a1,0(a0)
     fd8:	8082                	ret

00000fda <SetEPRxAddr>:
     fda:	400067b7          	lui	a5,0x40006
     fde:	c507a783          	lw	a5,-944(a5) # 40005c50 <_eusrstack+0x20000c50>
     fe2:	050e                	slli	a0,a0,0x3
     fe4:	8185                	srli	a1,a1,0x1
     fe6:	07c2                	slli	a5,a5,0x10
     fe8:	83c1                	srli	a5,a5,0x10
     fea:	953e                	add	a0,a0,a5
     fec:	200037b7          	lui	a5,0x20003
     ff0:	0791                	addi	a5,a5,4
     ff2:	953e                	add	a0,a0,a5
     ff4:	0506                	slli	a0,a0,0x1
     ff6:	0586                	slli	a1,a1,0x1
     ff8:	c10c                	sw	a1,0(a0)
     ffa:	8082                	ret

00000ffc <GetEPTxAddr>:
     ffc:	400067b7          	lui	a5,0x40006
    1000:	c507a783          	lw	a5,-944(a5) # 40005c50 <_eusrstack+0x20000c50>
    1004:	050e                	slli	a0,a0,0x3
    1006:	07c2                	slli	a5,a5,0x10
    1008:	83c1                	srli	a5,a5,0x10
    100a:	953e                	add	a0,a0,a5
    100c:	200037b7          	lui	a5,0x20003
    1010:	953e                	add	a0,a0,a5
    1012:	0506                	slli	a0,a0,0x1
    1014:	210a                	lhu	a0,0(a0)
    1016:	8082                	ret

00001018 <GetEPRxAddr>:
    1018:	400067b7          	lui	a5,0x40006
    101c:	c507a783          	lw	a5,-944(a5) # 40005c50 <_eusrstack+0x20000c50>
    1020:	050e                	slli	a0,a0,0x3
    1022:	07c2                	slli	a5,a5,0x10
    1024:	83c1                	srli	a5,a5,0x10
    1026:	953e                	add	a0,a0,a5
    1028:	200037b7          	lui	a5,0x20003
    102c:	0791                	addi	a5,a5,4
    102e:	953e                	add	a0,a0,a5
    1030:	0506                	slli	a0,a0,0x1
    1032:	210a                	lhu	a0,0(a0)
    1034:	8082                	ret

00001036 <SetEPTxCount>:
    1036:	400067b7          	lui	a5,0x40006
    103a:	c507a783          	lw	a5,-944(a5) # 40005c50 <_eusrstack+0x20000c50>
    103e:	050e                	slli	a0,a0,0x3
    1040:	07c2                	slli	a5,a5,0x10
    1042:	83c1                	srli	a5,a5,0x10
    1044:	953e                	add	a0,a0,a5
    1046:	200037b7          	lui	a5,0x20003
    104a:	0789                	addi	a5,a5,2
    104c:	953e                	add	a0,a0,a5
    104e:	0506                	slli	a0,a0,0x1
    1050:	c10c                	sw	a1,0(a0)
    1052:	8082                	ret

00001054 <SetEPRxCount>:
    1054:	400067b7          	lui	a5,0x40006
    1058:	c507a783          	lw	a5,-944(a5) # 40005c50 <_eusrstack+0x20000c50>
    105c:	00351713          	slli	a4,a0,0x3
    1060:	07c2                	slli	a5,a5,0x10
    1062:	83c1                	srli	a5,a5,0x10
    1064:	97ba                	add	a5,a5,a4
    1066:	20003737          	lui	a4,0x20003
    106a:	0719                	addi	a4,a4,6
    106c:	97ba                	add	a5,a5,a4
    106e:	03e00713          	li	a4,62
    1072:	0786                	slli	a5,a5,0x1
    1074:	04b77363          	bgeu	a4,a1,10ba <SetEPRxCount+0x66>
    1078:	0055d713          	srli	a4,a1,0x5
    107c:	89fd                	andi	a1,a1,31
    107e:	e581                	bnez	a1,1086 <SetEPRxCount+0x32>
    1080:	177d                	addi	a4,a4,-1
    1082:	0742                	slli	a4,a4,0x10
    1084:	8341                	srli	a4,a4,0x10
    1086:	072a                	slli	a4,a4,0xa
    1088:	66a1                	lui	a3,0x8
    108a:	8f55                	or	a4,a4,a3
    108c:	c398                	sw	a4,0(a5)
    108e:	e50d                	bnez	a0,10b8 <SetEPRxCount+0x64>
    1090:	200007b7          	lui	a5,0x20000
    1094:	07c7c783          	lbu	a5,124(a5) # 2000007c <Device_Property+0x2c>
    1098:	03e00713          	li	a4,62
    109c:	02f77663          	bgeu	a4,a5,10c8 <SetEPRxCount+0x74>
    10a0:	0057d713          	srli	a4,a5,0x5
    10a4:	8bfd                	andi	a5,a5,31
    10a6:	e781                	bnez	a5,10ae <SetEPRxCount+0x5a>
    10a8:	177d                	addi	a4,a4,-1
    10aa:	0742                	slli	a4,a4,0x10
    10ac:	8341                	srli	a4,a4,0x10
    10ae:	072a                	slli	a4,a4,0xa
    10b0:	77e1                	lui	a5,0xffff8
    10b2:	8f5d                	or	a4,a4,a5
    10b4:	84e19b23          	sh	a4,-1962(gp) # 200002f6 <Ep0RxBlks>
    10b8:	8082                	ret
    10ba:	0015d713          	srli	a4,a1,0x1
    10be:	8985                	andi	a1,a1,1
    10c0:	c191                	beqz	a1,10c4 <SetEPRxCount+0x70>
    10c2:	0705                	addi	a4,a4,1
    10c4:	072a                	slli	a4,a4,0xa
    10c6:	b7d9                	j	108c <SetEPRxCount+0x38>
    10c8:	0017d713          	srli	a4,a5,0x1
    10cc:	8b85                	andi	a5,a5,1
    10ce:	c391                	beqz	a5,10d2 <SetEPRxCount+0x7e>
    10d0:	0705                	addi	a4,a4,1
    10d2:	072a                	slli	a4,a4,0xa
    10d4:	b7c5                	j	10b4 <SetEPRxCount+0x60>

000010d6 <GetEPRxCount>:
    10d6:	400067b7          	lui	a5,0x40006
    10da:	c507a783          	lw	a5,-944(a5) # 40005c50 <_eusrstack+0x20000c50>
    10de:	050e                	slli	a0,a0,0x3
    10e0:	07c2                	slli	a5,a5,0x10
    10e2:	83c1                	srli	a5,a5,0x10
    10e4:	953e                	add	a0,a0,a5
    10e6:	200037b7          	lui	a5,0x20003
    10ea:	0799                	addi	a5,a5,6
    10ec:	953e                	add	a0,a0,a5
    10ee:	0506                	slli	a0,a0,0x1
    10f0:	4108                	lw	a0,0(a0)
    10f2:	3ff57513          	andi	a0,a0,1023
    10f6:	8082                	ret

000010f8 <ByteSwap>:
    10f8:	00855793          	srli	a5,a0,0x8
    10fc:	0ff57513          	andi	a0,a0,255
    1100:	0522                	slli	a0,a0,0x8
    1102:	8d5d                	or	a0,a0,a5
    1104:	8082                	ret

00001106 <USB_SIL_Init>:
    1106:	40006737          	lui	a4,0x40006
    110a:	77f1                	lui	a5,0xffffc
    110c:	c4072223          	sw	zero,-956(a4) # 40005c44 <_eusrstack+0x20000c44>
    1110:	f0078793          	addi	a5,a5,-256 # ffffbf00 <_eusrstack+0xdfff6f00>
    1114:	84f19623          	sh	a5,-1972(gp) # 200002ec <wInterrupt_Mask>
    1118:	67b1                	lui	a5,0xc
    111a:	f0078793          	addi	a5,a5,-256 # bf00 <_data_lma+0x7f78>
    111e:	c4f72023          	sw	a5,-960(a4)
    1122:	4501                	li	a0,0
    1124:	8082                	ret

00001126 <USB_SIL_Write>:
    1126:	80aff2ef          	jal	t0,130 <__riscv_save_0>
    112a:	8432                	mv	s0,a2
    112c:	07f57493          	andi	s1,a0,127
    1130:	8526                	mv	a0,s1
    1132:	0442                	slli	s0,s0,0x10
    1134:	892e                	mv	s2,a1
    1136:	8041                	srli	s0,s0,0x10
    1138:	35d1                	jal	ffc <GetEPTxAddr>
    113a:	8622                	mv	a2,s0
    113c:	85aa                	mv	a1,a0
    113e:	854a                	mv	a0,s2
    1140:	3951                	jal	dd4 <UserToPMABufferCopy>
    1142:	8526                	mv	a0,s1
    1144:	85a2                	mv	a1,s0
    1146:	3dc5                	jal	1036 <SetEPTxCount>
    1148:	4501                	li	a0,0
    114a:	80aff06f          	j	154 <__riscv_restore_0>

0000114e <USB_SIL_Read>:
    114e:	fe3fe2ef          	jal	t0,130 <__riscv_save_0>
    1152:	07f57493          	andi	s1,a0,127
    1156:	8526                	mv	a0,s1
    1158:	892e                	mv	s2,a1
    115a:	3fb5                	jal	10d6 <GetEPRxCount>
    115c:	842a                	mv	s0,a0
    115e:	8526                	mv	a0,s1
    1160:	3d65                	jal	1018 <GetEPRxAddr>
    1162:	85aa                	mv	a1,a0
    1164:	8622                	mv	a2,s0
    1166:	854a                	mv	a0,s2
    1168:	3941                	jal	df8 <PMAToUserBufferCopy>
    116a:	8522                	mv	a0,s0
    116c:	fe9fe06f          	j	154 <__riscv_restore_0>

00001170 <USB_LP_CAN1_RX0_IRQHandler>:
    1170:	2e09                	jal	1482 <USB_Istr>
    1172:	30200073          	mret

00001176 <Set_USBConfig>:
    1176:	fbbfe2ef          	jal	t0,130 <__riscv_save_0>
    117a:	8241a703          	lw	a4,-2012(gp) # 200002c4 <SystemCoreClock>
    117e:	089547b7          	lui	a5,0x8954
    1182:	40078793          	addi	a5,a5,1024 # 8954400 <_data_lma+0x8950478>
    1186:	4509                	li	a0,2
    1188:	02f70063          	beq	a4,a5,11a8 <Set_USBConfig+0x32>
    118c:	05b8e7b7          	lui	a5,0x5b8e
    1190:	80078793          	addi	a5,a5,-2048 # 5b8d800 <_data_lma+0x5b89878>
    1194:	4505                	li	a0,1
    1196:	00f70963          	beq	a4,a5,11a8 <Set_USBConfig+0x32>
    119a:	02dc77b7          	lui	a5,0x2dc7
    119e:	c0078793          	addi	a5,a5,-1024 # 2dc6c00 <_data_lma+0x2dc2c78>
    11a2:	00f71563          	bne	a4,a5,11ac <Set_USBConfig+0x36>
    11a6:	4501                	li	a0,0
    11a8:	168010ef          	jal	ra,2310 <RCC_USBCLKConfig>
    11ac:	4585                	li	a1,1
    11ae:	00800537          	lui	a0,0x800
    11b2:	1ea010ef          	jal	ra,239c <RCC_APB1PeriphClockCmd>
    11b6:	f9ffe06f          	j	154 <__riscv_restore_0>

000011ba <Enter_LowPowerMode>:
    11ba:	470d                	li	a4,3
    11bc:	86e1a823          	sw	a4,-1936(gp) # 20000310 <bDeviceState>
    11c0:	8082                	ret

000011c2 <Leave_LowPowerMode>:
    11c2:	8961c703          	lbu	a4,-1898(gp) # 20000336 <Device_Info+0xa>
    11c6:	c709                	beqz	a4,11d0 <Leave_LowPowerMode+0xe>
    11c8:	4715                	li	a4,5
    11ca:	86e1a823          	sw	a4,-1936(gp) # 20000310 <bDeviceState>
    11ce:	8082                	ret
    11d0:	4705                	li	a4,1
    11d2:	bfe5                	j	11ca <Leave_LowPowerMode+0x8>

000011d4 <USB_Interrupts_Config>:
    11d4:	f5dfe2ef          	jal	t0,130 <__riscv_save_0>
    11d8:	1141                	addi	sp,sp,-16
    11da:	12400793          	li	a5,292
    11de:	847c                	sh	a5,8(sp)
    11e0:	4785                	li	a5,1
    11e2:	855c                	sb	a5,10(sp)
    11e4:	0028                	addi	a0,sp,8
    11e6:	4785                	li	a5,1
    11e8:	c63e                	sw	a5,12(sp)
    11ea:	0a6010ef          	jal	ra,2290 <NVIC_Init>
    11ee:	03a00793          	li	a5,58
    11f2:	0028                	addi	a0,sp,8
    11f4:	847c                	sh	a5,8(sp)
    11f6:	09a010ef          	jal	ra,2290 <NVIC_Init>
    11fa:	0141                	addi	sp,sp,16
    11fc:	f59fe06f          	j	154 <__riscv_restore_0>

00001200 <USB_Port_Set>:
    1200:	f31fe2ef          	jal	t0,130 <__riscv_save_0>
    1204:	84aa                	mv	s1,a0
    1206:	842e                	mv	s0,a1
    1208:	4511                	li	a0,4
    120a:	4585                	li	a1,1
    120c:	172010ef          	jal	ra,237e <RCC_APB2PeriphClockCmd>
    1210:	ccb1                	beqz	s1,126c <USB_Port_Set+0x6c>
    1212:	400066b7          	lui	a3,0x40006
    1216:	c406a783          	lw	a5,-960(a3) # 40005c40 <_eusrstack+0x20000c40>
    121a:	6741                	lui	a4,0x10
    121c:	1775                	addi	a4,a4,-3
    121e:	8ff9                	and	a5,a5,a4
    1220:	c4f6a023          	sw	a5,-960(a3)
    1224:	400117b7          	lui	a5,0x40011
    1228:	8047a703          	lw	a4,-2044(a5) # 40010804 <_eusrstack+0x2000b804>
    122c:	fff016b7          	lui	a3,0xfff01
    1230:	16fd                	addi	a3,a3,-1
    1232:	8f75                	and	a4,a4,a3
    1234:	80e7a223          	sw	a4,-2044(a5)
    1238:	80c7a703          	lw	a4,-2036(a5)
    123c:	76f9                	lui	a3,0xffffe
    123e:	7ff68693          	addi	a3,a3,2047 # ffffe7ff <_eusrstack+0xdfff97ff>
    1242:	8f75                	and	a4,a4,a3
    1244:	80e7a623          	sw	a4,-2036(a5)
    1248:	8047a703          	lw	a4,-2044(a5)
    124c:	000446b7          	lui	a3,0x44
    1250:	8f55                	or	a4,a4,a3
    1252:	80e7a223          	sw	a4,-2044(a5)
    1256:	40024737          	lui	a4,0x40024
    125a:	80072783          	lw	a5,-2048(a4) # 40023800 <_eusrstack+0x2001e800>
    125e:	c821                	beqz	s0,12ae <USB_Port_Set+0xae>
    1260:	0027e793          	ori	a5,a5,2
    1264:	80f72023          	sw	a5,-2048(a4)
    1268:	eedfe06f          	j	154 <__riscv_restore_0>
    126c:	40006737          	lui	a4,0x40006
    1270:	c4072783          	lw	a5,-960(a4) # 40005c40 <_eusrstack+0x20000c40>
    1274:	fff016b7          	lui	a3,0xfff01
    1278:	16fd                	addi	a3,a3,-1
    127a:	0027e793          	ori	a5,a5,2
    127e:	07c2                	slli	a5,a5,0x10
    1280:	83c1                	srli	a5,a5,0x10
    1282:	c4f72023          	sw	a5,-960(a4)
    1286:	400117b7          	lui	a5,0x40011
    128a:	8047a703          	lw	a4,-2044(a5) # 40010804 <_eusrstack+0x2000b804>
    128e:	8f75                	and	a4,a4,a3
    1290:	80e7a223          	sw	a4,-2044(a5)
    1294:	80c7a703          	lw	a4,-2036(a5)
    1298:	76f9                	lui	a3,0xffffe
    129a:	7ff68693          	addi	a3,a3,2047 # ffffe7ff <_eusrstack+0xdfff97ff>
    129e:	8f75                	and	a4,a4,a3
    12a0:	80e7a623          	sw	a4,-2036(a5)
    12a4:	8047a703          	lw	a4,-2044(a5)
    12a8:	000336b7          	lui	a3,0x33
    12ac:	b755                	j	1250 <USB_Port_Set+0x50>
    12ae:	9bf5                	andi	a5,a5,-3
    12b0:	bf55                	j	1264 <USB_Port_Set+0x64>

000012b2 <usbSerial_start>:
    12b2:	e7ffe2ef          	jal	t0,130 <__riscv_save_0>
    12b6:	4585                	li	a1,1
    12b8:	4505                	li	a0,1
    12ba:	3799                	jal	1200 <USB_Port_Set>
    12bc:	3d6d                	jal	1176 <Set_USBConfig>
    12be:	f2cff0ef          	jal	ra,9ea <USB_Init>
    12c2:	3f09                	jal	11d4 <USB_Interrupts_Config>
    12c4:	3589                	jal	1106 <USB_SIL_Init>
    12c6:	03000593          	li	a1,48
    12ca:	450d                	li	a0,3
    12cc:	3ead                	jal	e46 <SetEPTxStatus>
    12ce:	40006737          	lui	a4,0x40006
    12d2:	c4472783          	lw	a5,-956(a4) # 40005c44 <_eusrstack+0x20000c44>
    12d6:	4007e793          	ori	a5,a5,1024
    12da:	c4f72223          	sw	a5,-956(a4)
    12de:	c4472783          	lw	a5,-956(a4)
    12e2:	4007f793          	andi	a5,a5,1024
    12e6:	ffe5                	bnez	a5,12de <usbSerial_start+0x2c>
    12e8:	200007b7          	lui	a5,0x20000
    12ec:	2a0780a3          	sb	zero,673(a5) # 200002a1 <usbNotReady>
    12f0:	e65fe06f          	j	154 <__riscv_restore_0>

000012f4 <usbSerial_connected>:
    12f4:	40006737          	lui	a4,0x40006
    12f8:	c0072783          	lw	a5,-1024(a4) # 40005c00 <_eusrstack+0x20000c00>
    12fc:	4501                	li	a0,0
    12fe:	07c2                	slli	a5,a5,0x10
    1300:	83c1                	srli	a5,a5,0x10
    1302:	cb89                	beqz	a5,1314 <usbSerial_connected+0x20>
    1304:	c0072503          	lw	a0,-1024(a4)
    1308:	678d                	lui	a5,0x3
    130a:	8d7d                	and	a0,a0,a5
    130c:	77f9                	lui	a5,0xffffe
    130e:	953e                	add	a0,a0,a5
    1310:	00a03533          	snez	a0,a0
    1314:	8082                	ret

00001316 <usbSerial_writeReady>:
    1316:	e1bfe2ef          	jal	t0,130 <__riscv_save_0>
    131a:	3fe9                	jal	12f4 <usbSerial_connected>
    131c:	57fd                	li	a5,-1
    131e:	c10d                	beqz	a0,1340 <usbSerial_writeReady+0x2a>
    1320:	200007b7          	lui	a5,0x20000
    1324:	2a07c703          	lbu	a4,672(a5) # 200002a0 <USBD_Endp3_Busy>
    1328:	4781                	li	a5,0
    132a:	0ff77713          	andi	a4,a4,255
    132e:	eb09                	bnez	a4,1340 <usbSerial_writeReady+0x2a>
    1330:	200007b7          	lui	a5,0x20000
    1334:	2a17c783          	lbu	a5,673(a5) # 200002a1 <usbNotReady>
    1338:	0ff7f793          	andi	a5,a5,255
    133c:	0017b793          	seqz	a5,a5
    1340:	853e                	mv	a0,a5
    1342:	e13fe06f          	j	154 <__riscv_restore_0>

00001346 <usbSerial_flush>:
    1346:	debfe2ef          	jal	t0,130 <__riscv_save_0>
    134a:	1141                	addi	sp,sp,-16
    134c:	3765                	jal	12f4 <usbSerial_connected>
    134e:	c90d                	beqz	a0,1380 <usbSerial_flush+0x3a>
    1350:	c602                	sw	zero,12(sp)
    1352:	1f400413          	li	s0,500
    1356:	37c1                	jal	1316 <usbSerial_writeReady>
    1358:	c51d                	beqz	a0,1386 <usbSerial_flush+0x40>
    135a:	85418413          	addi	s0,gp,-1964 # 200002f4 <txCount>
    135e:	2010                	lbu	a2,0(s0)
    1360:	9a818593          	addi	a1,gp,-1624 # 20000448 <txData>
    1364:	08300513          	li	a0,131
    1368:	3b7d                	jal	1126 <USB_SIL_Write>
    136a:	200007b7          	lui	a5,0x20000
    136e:	4705                	li	a4,1
    1370:	03000593          	li	a1,48
    1374:	450d                	li	a0,3
    1376:	2ae78023          	sb	a4,672(a5) # 200002a0 <USBD_Endp3_Busy>
    137a:	34f1                	jal	e46 <SetEPTxStatus>
    137c:	00040023          	sb	zero,0(s0)
    1380:	0141                	addi	sp,sp,16
    1382:	dd3fe06f          	j	154 <__riscv_restore_0>
    1386:	47b2                	lw	a5,12(sp)
    1388:	fef46ce3          	bltu	s0,a5,1380 <usbSerial_flush+0x3a>
    138c:	47b2                	lw	a5,12(sp)
    138e:	0785                	addi	a5,a5,1
    1390:	c63e                	sw	a5,12(sp)
    1392:	b7d1                	j	1356 <usbSerial_flush+0x10>

00001394 <usbSerial_writeP>:
    1394:	d83fe2ef          	jal	t0,116 <__riscv_save_4>
    1398:	1141                	addi	sp,sp,-16
    139a:	4481                	li	s1,0
    139c:	9a818913          	addi	s2,gp,-1624 # 20000448 <txData>
    13a0:	03f00a13          	li	s4,63
    13a4:	01049793          	slli	a5,s1,0x10
    13a8:	83c1                	srli	a5,a5,0x10
    13aa:	00b7e563          	bltu	a5,a1,13b4 <usbSerial_writeP+0x20>
    13ae:	0141                	addi	sp,sp,16
    13b0:	d9bfe06f          	j	14a <__riscv_restore_4>
    13b4:	85418413          	addi	s0,gp,-1964 # 200002f4 <txCount>
    13b8:	201c                	lbu	a5,0(s0)
    13ba:	00950733          	add	a4,a0,s1
    13be:	2318                	lbu	a4,0(a4)
    13c0:	97ca                	add	a5,a5,s2
    13c2:	a398                	sb	a4,0(a5)
    13c4:	201c                	lbu	a5,0(s0)
    13c6:	0785                	addi	a5,a5,1
    13c8:	0ff7f793          	andi	a5,a5,255
    13cc:	a01c                	sb	a5,0(s0)
    13ce:	201c                	lbu	a5,0(s0)
    13d0:	00fa7963          	bgeu	s4,a5,13e2 <usbSerial_writeP+0x4e>
    13d4:	c62e                	sw	a1,12(sp)
    13d6:	c42a                	sw	a0,8(sp)
    13d8:	37bd                	jal	1346 <usbSerial_flush>
    13da:	45b2                	lw	a1,12(sp)
    13dc:	4522                	lw	a0,8(sp)
    13de:	00040023          	sb	zero,0(s0)
    13e2:	0485                	addi	s1,s1,1
    13e4:	b7c1                	j	13a4 <usbSerial_writeP+0x10>

000013e6 <usbSerial_available>:
    13e6:	8521c503          	lbu	a0,-1966(gp) # 200002f2 <rxDataHead>
    13ea:	8531c783          	lbu	a5,-1965(gp) # 200002f3 <rxDataTail>
    13ee:	8d1d                	sub	a0,a0,a5
    13f0:	0ff57513          	andi	a0,a0,255
    13f4:	8082                	ret

000013f6 <usbSerial_read>:
    13f6:	85318713          	addi	a4,gp,-1965 # 200002f3 <rxDataTail>
    13fa:	85218793          	addi	a5,gp,-1966 # 200002f2 <rxDataHead>
    13fe:	2314                	lbu	a3,0(a4)
    1400:	239c                	lbu	a5,0(a5)
    1402:	0ff7f793          	andi	a5,a5,255
    1406:	fed788e3          	beq	a5,a3,13f6 <usbSerial_read>
    140a:	2314                	lbu	a3,0(a4)
    140c:	8a818793          	addi	a5,gp,-1880 # 20000348 <rxData>
    1410:	97b6                	add	a5,a5,a3
    1412:	2388                	lbu	a0,0(a5)
    1414:	231c                	lbu	a5,0(a4)
    1416:	0785                	addi	a5,a5,1
    1418:	0ff7f793          	andi	a5,a5,255
    141c:	a31c                	sb	a5,0(a4)
    141e:	8082                	ret

00001420 <EP1_IN_Callback>:
    1420:	8082                	ret

00001422 <EP2_OUT_Callback>:
    1422:	d0ffe2ef          	jal	t0,130 <__riscv_save_0>
    1426:	7175                	addi	sp,sp,-144
    1428:	080c                	addi	a1,sp,16
    142a:	4509                	li	a0,2
    142c:	330d                	jal	114e <USB_SIL_Read>
    142e:	0ff57513          	andi	a0,a0,255
    1432:	87c8                	sb	a0,15(sp)
    1434:	4781                	li	a5,0
    1436:	8a818693          	addi	a3,gp,-1880 # 20000348 <rxData>
    143a:	8790                	lbu	a2,15(sp)
    143c:	85218713          	addi	a4,gp,-1966 # 200002f2 <rxDataHead>
    1440:	00c7ee63          	bltu	a5,a2,145c <EP2_OUT_Callback+0x3a>
    1444:	8794                	lbu	a3,15(sp)
    1446:	231c                	lbu	a5,0(a4)
    1448:	4509                	li	a0,2
    144a:	97b6                	add	a5,a5,a3
    144c:	0ff7f793          	andi	a5,a5,255
    1450:	a31c                	sb	a5,0(a4)
    1452:	a93ff0ef          	jal	ra,ee4 <SetEPRxValid>
    1456:	6149                	addi	sp,sp,144
    1458:	cfdfe06f          	j	154 <__riscv_restore_0>
    145c:	2318                	lbu	a4,0(a4)
    145e:	0910                	addi	a2,sp,144
    1460:	963e                	add	a2,a2,a5
    1462:	973e                	add	a4,a4,a5
    1464:	f8064603          	lbu	a2,-128(a2) # 2f80 <_printf_i+0x12>
    1468:	0ff77713          	andi	a4,a4,255
    146c:	9736                	add	a4,a4,a3
    146e:	0785                	addi	a5,a5,1
    1470:	a310                	sb	a2,0(a4)
    1472:	0ff7f793          	andi	a5,a5,255
    1476:	b7d1                	j	143a <EP2_OUT_Callback+0x18>

00001478 <EP3_IN_Callback>:
    1478:	200007b7          	lui	a5,0x20000
    147c:	2a078023          	sb	zero,672(a5) # 200002a0 <USBD_Endp3_Busy>
    1480:	8082                	ret

00001482 <USB_Istr>:
    1482:	caffe2ef          	jal	t0,130 <__riscv_save_0>
    1486:	40006837          	lui	a6,0x40006
    148a:	c5082703          	lw	a4,-944(a6) # 40005c50 <_eusrstack+0x20000c50>
    148e:	65c1                	lui	a1,0x10
    1490:	fff58513          	addi	a0,a1,-1 # ffff <_data_lma+0xc077>
    1494:	8561d683          	lhu	a3,-1962(gp) # 200002f6 <Ep0RxBlks>
    1498:	200037b7          	lui	a5,0x20003
    149c:	8f69                	and	a4,a4,a0
    149e:	00678613          	addi	a2,a5,6 # 20003006 <__global_pointer$+0x2566>
    14a2:	9732                	add	a4,a4,a2
    14a4:	0706                	slli	a4,a4,0x1
    14a6:	4318                	lw	a4,0(a4)
    14a8:	c0058593          	addi	a1,a1,-1024
    14ac:	1101                	addi	sp,sp,-32
    14ae:	8df9                	and	a1,a1,a4
    14b0:	00d58c63          	beq	a1,a3,14c8 <USB_Istr+0x46>
    14b4:	c5082783          	lw	a5,-944(a6)
    14b8:	c006f693          	andi	a3,a3,-1024
    14bc:	8fe9                	and	a5,a5,a0
    14be:	97b2                	add	a5,a5,a2
    14c0:	0786                	slli	a5,a5,0x1
    14c2:	4398                	lw	a4,0(a5)
    14c4:	8ed9                	or	a3,a3,a4
    14c6:	c394                	sw	a3,0(a5)
    14c8:	400066b7          	lui	a3,0x40006
    14cc:	c446a783          	lw	a5,-956(a3) # 40005c44 <_eusrstack+0x20000c44>
    14d0:	86418713          	addi	a4,gp,-1948 # 20000304 <wIstr>
    14d4:	07c2                	slli	a5,a5,0x10
    14d6:	83c1                	srli	a5,a5,0x10
    14d8:	a31e                	sh	a5,0(a4)
    14da:	231a                	lhu	a4,0(a4)
    14dc:	84c1d783          	lhu	a5,-1972(gp) # 200002ec <wInterrupt_Mask>
    14e0:	86418413          	addi	s0,gp,-1948 # 20000304 <wIstr>
    14e4:	8f7d                	and	a4,a4,a5
    14e6:	20077713          	andi	a4,a4,512
    14ea:	cf09                	beqz	a4,1504 <USB_Istr+0x82>
    14ec:	6741                	lui	a4,0x10
    14ee:	dff70713          	addi	a4,a4,-513 # fdff <_data_lma+0xbe77>
    14f2:	c4e6a223          	sw	a4,-956(a3)
    14f6:	85818693          	addi	a3,gp,-1960 # 200002f8 <bIntPackSOF>
    14fa:	2298                	lbu	a4,0(a3)
    14fc:	0705                	addi	a4,a4,1
    14fe:	0ff77713          	andi	a4,a4,255
    1502:	a298                	sb	a4,0(a3)
    1504:	201a                	lhu	a4,0(s0)
    1506:	8ff9                	and	a5,a5,a4
    1508:	07c2                	slli	a5,a5,0x10
    150a:	87c1                	srai	a5,a5,0x10
    150c:	0007d463          	bgez	a5,1514 <USB_Istr+0x92>
    1510:	d0cff0ef          	jal	ra,a1c <CTR_LP>
    1514:	201e                	lhu	a5,0(s0)
    1516:	84c1d703          	lhu	a4,-1972(gp) # 200002ec <wInterrupt_Mask>
    151a:	8ff9                	and	a5,a5,a4
    151c:	4007f793          	andi	a5,a5,1024
    1520:	cf89                	beqz	a5,153a <USB_Istr+0xb8>
    1522:	67c1                	lui	a5,0x10
    1524:	bff78793          	addi	a5,a5,-1025 # fbff <_data_lma+0xbc77>
    1528:	40006737          	lui	a4,0x40006
    152c:	c4f72223          	sw	a5,-956(a4) # 40005c44 <_eusrstack+0x20000c44>
    1530:	200007b7          	lui	a5,0x20000
    1534:	0547a783          	lw	a5,84(a5) # 20000054 <Device_Property+0x4>
    1538:	9782                	jalr	a5
    153a:	201a                	lhu	a4,0(s0)
    153c:	84c1d783          	lhu	a5,-1972(gp) # 200002ec <wInterrupt_Mask>
    1540:	8f7d                	and	a4,a4,a5
    1542:	01271693          	slli	a3,a4,0x12
    1546:	0006d863          	bgez	a3,1556 <USB_Istr+0xd4>
    154a:	6739                	lui	a4,0xe
    154c:	400066b7          	lui	a3,0x40006
    1550:	177d                	addi	a4,a4,-1
    1552:	c4e6a223          	sw	a4,-956(a3) # 40005c44 <_eusrstack+0x20000c44>
    1556:	201a                	lhu	a4,0(s0)
    1558:	8ff9                	and	a5,a5,a4
    155a:	01379713          	slli	a4,a5,0x13
    155e:	00075a63          	bgez	a4,1572 <USB_Istr+0xf0>
    1562:	67bd                	lui	a5,0xf
    1564:	40006737          	lui	a4,0x40006
    1568:	17fd                	addi	a5,a5,-1
    156a:	c4f72223          	sw	a5,-956(a4) # 40005c44 <_eusrstack+0x20000c44>
    156e:	4501                	li	a0,0
    1570:	23f1                	jal	1b3c <Resume>
    1572:	84c1d703          	lhu	a4,-1972(gp) # 200002ec <wInterrupt_Mask>
    1576:	201e                	lhu	a5,0(s0)
    1578:	8ff9                	and	a5,a5,a4
    157a:	01479713          	slli	a4,a5,0x14
    157e:	00075e63          	bgez	a4,159a <USB_Istr+0x118>
    1582:	8201a783          	lw	a5,-2016(gp) # 200002c0 <fSuspendEnabled>
    1586:	0e078f63          	beqz	a5,1684 <USB_Istr+0x202>
    158a:	21f1                	jal	1a56 <Suspend>
    158c:	67bd                	lui	a5,0xf
    158e:	40006737          	lui	a4,0x40006
    1592:	7ff78793          	addi	a5,a5,2047 # f7ff <_data_lma+0xb877>
    1596:	c4f72223          	sw	a5,-956(a4) # 40005c44 <_eusrstack+0x20000c44>
    159a:	201e                	lhu	a5,0(s0)
    159c:	84c1d703          	lhu	a4,-1972(gp) # 200002ec <wInterrupt_Mask>
    15a0:	8ff9                	and	a5,a5,a4
    15a2:	1007f793          	andi	a5,a5,256
    15a6:	cfe1                	beqz	a5,167e <USB_Istr+0x1fc>
    15a8:	67c1                	lui	a5,0x10
    15aa:	40006737          	lui	a4,0x40006
    15ae:	eff78693          	addi	a3,a5,-257 # feff <_data_lma+0xbf77>
    15b2:	c4d72223          	sw	a3,-956(a4) # 40005c44 <_eusrstack+0x20000c44>
    15b6:	c4872603          	lw	a2,-952(a4)
    15ba:	85c18693          	addi	a3,gp,-1956 # 200002fc <esof_counter>
    15be:	01061593          	slli	a1,a2,0x10
    15c2:	0a05da63          	bgez	a1,1676 <USB_Istr+0x1f4>
    15c6:	4290                	lw	a2,0(a3)
    15c8:	0605                	addi	a2,a2,1
    15ca:	c290                	sw	a2,0(a3)
    15cc:	428c                	lw	a1,0(a3)
    15ce:	460d                	li	a2,3
    15d0:	0ab67563          	bgeu	a2,a1,167a <USB_Istr+0x1f8>
    15d4:	c4072603          	lw	a2,-960(a4)
    15d8:	17fd                	addi	a5,a5,-1
    15da:	8a21                	andi	a2,a2,8
    15dc:	ee59                	bnez	a2,167a <USB_Istr+0x1f8>
    15de:	c4072603          	lw	a2,-960(a4)
    15e2:	86018593          	addi	a1,gp,-1952 # 20000300 <wCNTR>
    15e6:	8e7d                	and	a2,a2,a5
    15e8:	40006537          	lui	a0,0x40006
    15ec:	c190                	sw	a2,0(a1)
    15ee:	86018713          	addi	a4,gp,-1952 # 20000300 <wCNTR>
    15f2:	4601                	li	a2,0
    15f4:	c0050313          	addi	t1,a0,-1024 # 40005c00 <_eusrstack+0x20000c00>
    15f8:	48a1                	li	a7,8
    15fa:	00261593          	slli	a1,a2,0x2
    15fe:	00658833          	add	a6,a1,t1
    1602:	00082803          	lw	a6,0(a6)
    1606:	1000                	addi	s0,sp,32
    1608:	95a2                	add	a1,a1,s0
    160a:	00f87833          	and	a6,a6,a5
    160e:	ff05a023          	sw	a6,-32(a1)
    1612:	0605                	addi	a2,a2,1
    1614:	ff1613e3          	bne	a2,a7,15fa <USB_Istr+0x178>
    1618:	4310                	lw	a2,0(a4)
    161a:	00166613          	ori	a2,a2,1
    161e:	c310                	sw	a2,0(a4)
    1620:	4310                	lw	a2,0(a4)
    1622:	8e7d                	and	a2,a2,a5
    1624:	c4c52023          	sw	a2,-960(a0)
    1628:	4310                	lw	a2,0(a4)
    162a:	9a79                	andi	a2,a2,-2
    162c:	c310                	sw	a2,0(a4)
    162e:	4318                	lw	a4,0(a4)
    1630:	8ff9                	and	a5,a5,a4
    1632:	c4f52023          	sw	a5,-960(a0)
    1636:	40006737          	lui	a4,0x40006
    163a:	c4472783          	lw	a5,-956(a4) # 40005c44 <_eusrstack+0x20000c44>
    163e:	4007f793          	andi	a5,a5,1024
    1642:	dfe5                	beqz	a5,163a <USB_Istr+0x1b8>
    1644:	67c1                	lui	a5,0x10
    1646:	bff78793          	addi	a5,a5,-1025 # fbff <_data_lma+0xbc77>
    164a:	40006537          	lui	a0,0x40006
    164e:	65c1                	lui	a1,0x10
    1650:	c4f72223          	sw	a5,-956(a4)
    1654:	c0050513          	addi	a0,a0,-1024 # 40005c00 <_eusrstack+0x20000c00>
    1658:	4781                	li	a5,0
    165a:	15fd                	addi	a1,a1,-1
    165c:	4821                	li	a6,8
    165e:	00279713          	slli	a4,a5,0x2
    1662:	1010                	addi	a2,sp,32
    1664:	963a                	add	a2,a2,a4
    1666:	fe062603          	lw	a2,-32(a2)
    166a:	972a                	add	a4,a4,a0
    166c:	0785                	addi	a5,a5,1
    166e:	8e6d                	and	a2,a2,a1
    1670:	c310                	sw	a2,0(a4)
    1672:	ff0796e3          	bne	a5,a6,165e <USB_Istr+0x1dc>
    1676:	0006a023          	sw	zero,0(a3)
    167a:	451d                	li	a0,7
    167c:	21c1                	jal	1b3c <Resume>
    167e:	6105                	addi	sp,sp,32
    1680:	ad5fe06f          	j	154 <__riscv_restore_0>
    1684:	4509                	li	a0,2
    1686:	295d                	jal	1b3c <Resume>
    1688:	b711                	j	158c <USB_Istr+0x10a>

0000168a <USBD_SetConfiguration>:
    168a:	8961c783          	lbu	a5,-1898(gp) # 20000336 <Device_Info+0xa>
    168e:	c781                	beqz	a5,1696 <USBD_SetConfiguration+0xc>
    1690:	4715                	li	a4,5
    1692:	86e1a823          	sw	a4,-1936(gp) # 20000310 <bDeviceState>
    1696:	8082                	ret

00001698 <USBD_SetDeviceAddress>:
    1698:	4711                	li	a4,4
    169a:	86e1a823          	sw	a4,-1936(gp) # 20000310 <bDeviceState>
    169e:	8082                	ret

000016a0 <USBD_SetDeviceFeature>:
    16a0:	8082                	ret

000016a2 <USBD_Get_Interface_Setting>:
    16a2:	e591                	bnez	a1,16ae <USBD_Get_Interface_Setting+0xc>
    16a4:	4785                	li	a5,1
    16a6:	00a7b533          	sltu	a0,a5,a0
    16aa:	0506                	slli	a0,a0,0x1
    16ac:	8082                	ret
    16ae:	4509                	li	a0,2
    16b0:	8082                	ret

000016b2 <USB_CDC_GetLineCoding>:
    16b2:	e511                	bnez	a0,16be <USB_CDC_GetLineCoding+0xc>
    16b4:	8401a783          	lw	a5,-1984(gp) # 200002e0 <pInformation>
    16b8:	471d                	li	a4,7
    16ba:	ab9a                	sh	a4,16(a5)
    16bc:	8082                	ret
    16be:	81818513          	addi	a0,gp,-2024 # 200002b8 <cdc_comconfig>
    16c2:	8082                	ret

000016c4 <USB_CDC_SetLineCoding>:
    16c4:	a6dfe2ef          	jal	t0,130 <__riscv_save_0>
    16c8:	37ed                	jal	16b2 <USB_CDC_GetLineCoding>
    16ca:	a8bfe06f          	j	154 <__riscv_restore_0>

000016ce <USBD_Data_Setup>:
    16ce:	8401a703          	lw	a4,-1984(gp) # 200002e0 <pInformation>
    16d2:	02100693          	li	a3,33
    16d6:	4509                	li	a0,2
    16d8:	231c                	lbu	a5,0(a4)
    16da:	07f7f793          	andi	a5,a5,127
    16de:	02d79c63          	bne	a5,a3,1716 <USBD_Data_Setup+0x48>
    16e2:	3314                	lbu	a3,1(a4)
    16e4:	02f68463          	beq	a3,a5,170c <USBD_Data_Setup+0x3e>
    16e8:	02000793          	li	a5,32
    16ec:	02f69563          	bne	a3,a5,1716 <USBD_Data_Setup+0x48>
    16f0:	000017b7          	lui	a5,0x1
    16f4:	6c478793          	addi	a5,a5,1732 # 16c4 <USB_CDC_SetLineCoding>
    16f8:	a39fe2ef          	jal	t0,130 <__riscv_save_0>
    16fc:	cf1c                	sw	a5,24(a4)
    16fe:	00071923          	sh	zero,18(a4)
    1702:	4501                	li	a0,0
    1704:	9782                	jalr	a5
    1706:	4501                	li	a0,0
    1708:	a4dfe06f          	j	154 <__riscv_restore_0>
    170c:	000017b7          	lui	a5,0x1
    1710:	6b278793          	addi	a5,a5,1714 # 16b2 <USB_CDC_GetLineCoding>
    1714:	b7d5                	j	16f8 <USBD_Data_Setup+0x2a>
    1716:	8082                	ret

00001718 <USBD_NoData_Setup>:
    1718:	8401a703          	lw	a4,-1984(gp) # 200002e0 <pInformation>
    171c:	02100693          	li	a3,33
    1720:	4501                	li	a0,0
    1722:	331c                	lbu	a5,1(a4)
    1724:	2318                	lbu	a4,0(a4)
    1726:	07f77713          	andi	a4,a4,127
    172a:	00d71a63          	bne	a4,a3,173e <USBD_NoData_Setup+0x26>
    172e:	fde78793          	addi	a5,a5,-34
    1732:	0ff7f793          	andi	a5,a5,255
    1736:	4505                	li	a0,1
    1738:	00f53533          	sltu	a0,a0,a5
    173c:	0506                	slli	a0,a0,0x1
    173e:	8082                	ret

00001740 <USBD_init>:
    1740:	9f1fe2ef          	jal	t0,130 <__riscv_save_0>
    1744:	8401a783          	lw	a5,-1984(gp) # 200002e0 <pInformation>
    1748:	00078523          	sb	zero,10(a5)
    174c:	24c5                	jal	1a2c <PowerOn>
    174e:	400067b7          	lui	a5,0x40006
    1752:	6685                	lui	a3,0x1
    1754:	40006637          	lui	a2,0x40006
    1758:	c0078793          	addi	a5,a5,-1024 # 40005c00 <_eusrstack+0x20000c00>
    175c:	f0f68693          	addi	a3,a3,-241 # f0f <SetEPRxValid+0x2b>
    1760:	c2060593          	addi	a1,a2,-992 # 40005c20 <_eusrstack+0x20000c20>
    1764:	4398                	lw	a4,0(a5)
    1766:	0791                	addi	a5,a5,4
    1768:	8f75                	and	a4,a4,a3
    176a:	fee7ae23          	sw	a4,-4(a5)
    176e:	feb79be3          	bne	a5,a1,1764 <USBD_init+0x24>
    1772:	0ff00793          	li	a5,255
    1776:	c4f62223          	sw	a5,-956(a2)
    177a:	98dff0ef          	jal	ra,1106 <USB_SIL_Init>
    177e:	8601a823          	sw	zero,-1936(gp) # 20000310 <bDeviceState>
    1782:	9d3fe06f          	j	154 <__riscv_restore_0>

00001786 <USBD_Reset>:
    1786:	9abfe2ef          	jal	t0,130 <__riscv_save_0>
    178a:	6711                	lui	a4,0x4
    178c:	c6f74703          	lbu	a4,-913(a4) # 3c6f <USBD_ConfigDescriptor+0x7>
    1790:	8401a783          	lw	a5,-1984(gp) # 200002e0 <pInformation>
    1794:	4501                	li	a0,0
    1796:	b798                	sb	a4,9(a5)
    1798:	00079523          	sh	zero,10(a5)
    179c:	e7aff0ef          	jal	ra,e16 <SetBTABLE>
    17a0:	20000593          	li	a1,512
    17a4:	4501                	li	a0,0
    17a6:	e80ff0ef          	jal	ra,e26 <SetEPType>
    17aa:	45c1                	li	a1,16
    17ac:	4501                	li	a0,0
    17ae:	e98ff0ef          	jal	ra,e46 <SetEPTxStatus>
    17b2:	04000593          	li	a1,64
    17b6:	4501                	li	a0,0
    17b8:	823ff0ef          	jal	ra,fda <SetEPRxAddr>
    17bc:	08000593          	li	a1,128
    17c0:	4501                	li	a0,0
    17c2:	ff8ff0ef          	jal	ra,fba <SetEPTxAddr>
    17c6:	4501                	li	a0,0
    17c8:	f84ff0ef          	jal	ra,f4c <Clear_Status_Out>
    17cc:	200007b7          	lui	a5,0x20000
    17d0:	07c7c583          	lbu	a1,124(a5) # 2000007c <Device_Property+0x2c>
    17d4:	4501                	li	a0,0
    17d6:	87fff0ef          	jal	ra,1054 <SetEPRxCount>
    17da:	4501                	li	a0,0
    17dc:	f08ff0ef          	jal	ra,ee4 <SetEPRxValid>
    17e0:	40006737          	lui	a4,0x40006
    17e4:	c0072603          	lw	a2,-1024(a4) # 40005c00 <_eusrstack+0x20000c00>
    17e8:	67c1                	lui	a5,0x10
    17ea:	fff78693          	addi	a3,a5,-1 # ffff <_data_lma+0xc077>
    17ee:	01161793          	slli	a5,a2,0x11
    17f2:	0007df63          	bgez	a5,1810 <USBD_Reset+0x8a>
    17f6:	c0072783          	lw	a5,-1024(a4)
    17fa:	8ff5                	and	a5,a5,a3
    17fc:	6685                	lui	a3,0x1
    17fe:	f0f68693          	addi	a3,a3,-241 # f0f <SetEPRxValid+0x2b>
    1802:	8ff5                	and	a5,a5,a3
    1804:	66b1                	lui	a3,0xc
    1806:	08068693          	addi	a3,a3,128 # c080 <_data_lma+0x80f8>
    180a:	8fd5                	or	a5,a5,a3
    180c:	c0f72023          	sw	a5,-1024(a4)
    1810:	40006737          	lui	a4,0x40006
    1814:	c0072783          	lw	a5,-1024(a4) # 40005c00 <_eusrstack+0x20000c00>
    1818:	0407f793          	andi	a5,a5,64
    181c:	c385                	beqz	a5,183c <USBD_Reset+0xb6>
    181e:	c0072783          	lw	a5,-1024(a4)
    1822:	66c1                	lui	a3,0x10
    1824:	16fd                	addi	a3,a3,-1
    1826:	8ff5                	and	a5,a5,a3
    1828:	6685                	lui	a3,0x1
    182a:	f0f68693          	addi	a3,a3,-241 # f0f <SetEPRxValid+0x2b>
    182e:	8ff5                	and	a5,a5,a3
    1830:	66a1                	lui	a3,0x8
    1832:	0c068693          	addi	a3,a3,192 # 80c0 <_data_lma+0x4138>
    1836:	8fd5                	or	a5,a5,a3
    1838:	c0f72023          	sw	a5,-1024(a4)
    183c:	60000593          	li	a1,1536
    1840:	4505                	li	a0,1
    1842:	de4ff0ef          	jal	ra,e26 <SetEPType>
    1846:	02000593          	li	a1,32
    184a:	4505                	li	a0,1
    184c:	dfaff0ef          	jal	ra,e46 <SetEPTxStatus>
    1850:	0c000593          	li	a1,192
    1854:	4505                	li	a0,1
    1856:	f64ff0ef          	jal	ra,fba <SetEPTxAddr>
    185a:	4581                	li	a1,0
    185c:	4505                	li	a0,1
    185e:	e30ff0ef          	jal	ra,e8e <SetEPRxStatus>
    1862:	40006737          	lui	a4,0x40006
    1866:	c0472783          	lw	a5,-1020(a4) # 40005c04 <_eusrstack+0x20000c04>
    186a:	0407f793          	andi	a5,a5,64
    186e:	c385                	beqz	a5,188e <USBD_Reset+0x108>
    1870:	c0472783          	lw	a5,-1020(a4)
    1874:	66c1                	lui	a3,0x10
    1876:	16fd                	addi	a3,a3,-1
    1878:	8ff5                	and	a5,a5,a3
    187a:	6685                	lui	a3,0x1
    187c:	f0f68693          	addi	a3,a3,-241 # f0f <SetEPRxValid+0x2b>
    1880:	8ff5                	and	a5,a5,a3
    1882:	66a1                	lui	a3,0x8
    1884:	0c068693          	addi	a3,a3,192 # 80c0 <_data_lma+0x4138>
    1888:	8fd5                	or	a5,a5,a3
    188a:	c0f72223          	sw	a5,-1020(a4)
    188e:	40006737          	lui	a4,0x40006
    1892:	c0472603          	lw	a2,-1020(a4) # 40005c04 <_eusrstack+0x20000c04>
    1896:	67c1                	lui	a5,0x10
    1898:	fff78693          	addi	a3,a5,-1 # ffff <_data_lma+0xc077>
    189c:	01161793          	slli	a5,a2,0x11
    18a0:	0007df63          	bgez	a5,18be <USBD_Reset+0x138>
    18a4:	c0472783          	lw	a5,-1020(a4)
    18a8:	8ff5                	and	a5,a5,a3
    18aa:	6685                	lui	a3,0x1
    18ac:	f0f68693          	addi	a3,a3,-241 # f0f <SetEPRxValid+0x2b>
    18b0:	8ff5                	and	a5,a5,a3
    18b2:	66b1                	lui	a3,0xc
    18b4:	08068693          	addi	a3,a3,128 # c080 <_data_lma+0x80f8>
    18b8:	8fd5                	or	a5,a5,a3
    18ba:	c0f72223          	sw	a5,-1020(a4)
    18be:	4581                	li	a1,0
    18c0:	4509                	li	a0,2
    18c2:	d64ff0ef          	jal	ra,e26 <SetEPType>
    18c6:	4581                	li	a1,0
    18c8:	4509                	li	a0,2
    18ca:	d7cff0ef          	jal	ra,e46 <SetEPTxStatus>
    18ce:	10000593          	li	a1,256
    18d2:	4509                	li	a0,2
    18d4:	f06ff0ef          	jal	ra,fda <SetEPRxAddr>
    18d8:	04000593          	li	a1,64
    18dc:	4509                	li	a0,2
    18de:	f76ff0ef          	jal	ra,1054 <SetEPRxCount>
    18e2:	658d                	lui	a1,0x3
    18e4:	4509                	li	a0,2
    18e6:	da8ff0ef          	jal	ra,e8e <SetEPRxStatus>
    18ea:	40006737          	lui	a4,0x40006
    18ee:	c0872603          	lw	a2,-1016(a4) # 40005c08 <_eusrstack+0x20000c08>
    18f2:	67c1                	lui	a5,0x10
    18f4:	fff78693          	addi	a3,a5,-1 # ffff <_data_lma+0xc077>
    18f8:	01161793          	slli	a5,a2,0x11
    18fc:	0007df63          	bgez	a5,191a <USBD_Reset+0x194>
    1900:	c0872783          	lw	a5,-1016(a4)
    1904:	8ff5                	and	a5,a5,a3
    1906:	6685                	lui	a3,0x1
    1908:	f0f68693          	addi	a3,a3,-241 # f0f <SetEPRxValid+0x2b>
    190c:	8ff5                	and	a5,a5,a3
    190e:	66b1                	lui	a3,0xc
    1910:	08068693          	addi	a3,a3,128 # c080 <_data_lma+0x80f8>
    1914:	8fd5                	or	a5,a5,a3
    1916:	c0f72423          	sw	a5,-1016(a4)
    191a:	40006737          	lui	a4,0x40006
    191e:	c0872783          	lw	a5,-1016(a4) # 40005c08 <_eusrstack+0x20000c08>
    1922:	0407f793          	andi	a5,a5,64
    1926:	c385                	beqz	a5,1946 <USBD_Reset+0x1c0>
    1928:	c0872783          	lw	a5,-1016(a4)
    192c:	66c1                	lui	a3,0x10
    192e:	16fd                	addi	a3,a3,-1
    1930:	8ff5                	and	a5,a5,a3
    1932:	6685                	lui	a3,0x1
    1934:	f0f68693          	addi	a3,a3,-241 # f0f <SetEPRxValid+0x2b>
    1938:	8ff5                	and	a5,a5,a3
    193a:	66a1                	lui	a3,0x8
    193c:	0c068693          	addi	a3,a3,192 # 80c0 <_data_lma+0x4138>
    1940:	8fd5                	or	a5,a5,a3
    1942:	c0f72423          	sw	a5,-1016(a4)
    1946:	4581                	li	a1,0
    1948:	450d                	li	a0,3
    194a:	cdcff0ef          	jal	ra,e26 <SetEPType>
    194e:	02000593          	li	a1,32
    1952:	450d                	li	a0,3
    1954:	cf2ff0ef          	jal	ra,e46 <SetEPTxStatus>
    1958:	14000593          	li	a1,320
    195c:	450d                	li	a0,3
    195e:	e5cff0ef          	jal	ra,fba <SetEPTxAddr>
    1962:	4581                	li	a1,0
    1964:	450d                	li	a0,3
    1966:	d28ff0ef          	jal	ra,e8e <SetEPRxStatus>
    196a:	40006737          	lui	a4,0x40006
    196e:	c0c72783          	lw	a5,-1012(a4) # 40005c0c <_eusrstack+0x20000c0c>
    1972:	0407f793          	andi	a5,a5,64
    1976:	c385                	beqz	a5,1996 <USBD_Reset+0x210>
    1978:	c0c72783          	lw	a5,-1012(a4)
    197c:	66c1                	lui	a3,0x10
    197e:	16fd                	addi	a3,a3,-1
    1980:	8ff5                	and	a5,a5,a3
    1982:	6685                	lui	a3,0x1
    1984:	f0f68693          	addi	a3,a3,-241 # f0f <SetEPRxValid+0x2b>
    1988:	8ff5                	and	a5,a5,a3
    198a:	66a1                	lui	a3,0x8
    198c:	0c068693          	addi	a3,a3,192 # 80c0 <_data_lma+0x4138>
    1990:	8fd5                	or	a5,a5,a3
    1992:	c0f72623          	sw	a5,-1012(a4)
    1996:	40006737          	lui	a4,0x40006
    199a:	c0c72603          	lw	a2,-1012(a4) # 40005c0c <_eusrstack+0x20000c0c>
    199e:	67c1                	lui	a5,0x10
    19a0:	fff78693          	addi	a3,a5,-1 # ffff <_data_lma+0xc077>
    19a4:	01161793          	slli	a5,a2,0x11
    19a8:	0007df63          	bgez	a5,19c6 <USBD_Reset+0x240>
    19ac:	c0c72783          	lw	a5,-1012(a4)
    19b0:	8ff5                	and	a5,a5,a3
    19b2:	6685                	lui	a3,0x1
    19b4:	f0f68693          	addi	a3,a3,-241 # f0f <SetEPRxValid+0x2b>
    19b8:	8ff5                	and	a5,a5,a3
    19ba:	66b1                	lui	a3,0xc
    19bc:	08068693          	addi	a3,a3,128 # c080 <_data_lma+0x80f8>
    19c0:	8fd5                	or	a5,a5,a3
    19c2:	c0f72623          	sw	a5,-1012(a4)
    19c6:	4501                	li	a0,0
    19c8:	f7dfe0ef          	jal	ra,944 <SetDeviceAddress>
    19cc:	200007b7          	lui	a5,0x20000
    19d0:	2a078023          	sb	zero,672(a5) # 200002a0 <USBD_Endp3_Busy>
    19d4:	4705                	li	a4,1
    19d6:	86e1a823          	sw	a4,-1936(gp) # 20000310 <bDeviceState>
    19da:	f7afe06f          	j	154 <__riscv_restore_0>

000019de <USBD_GetDeviceDescriptor>:
    19de:	f52fe2ef          	jal	t0,130 <__riscv_save_0>
    19e2:	80c18593          	addi	a1,gp,-2036 # 200002ac <Device_Descriptor>
    19e6:	b5bfe0ef          	jal	ra,540 <Standard_GetDescriptorData>
    19ea:	f6afe06f          	j	154 <__riscv_restore_0>

000019ee <USBD_GetConfigDescriptor>:
    19ee:	f42fe2ef          	jal	t0,130 <__riscv_save_0>
    19f2:	80418593          	addi	a1,gp,-2044 # 200002a4 <Config_Descriptor>
    19f6:	b4bfe0ef          	jal	ra,540 <Standard_GetDescriptorData>
    19fa:	f5afe06f          	j	154 <__riscv_restore_0>

000019fe <USBD_GetStringDescriptor>:
    19fe:	8401a783          	lw	a5,-1984(gp) # 200002e0 <pInformation>
    1a02:	33ac                	lbu	a1,3(a5)
    1a04:	4791                	li	a5,4
    1a06:	00b7ee63          	bltu	a5,a1,1a22 <USBD_GetStringDescriptor+0x24>
    1a0a:	f26fe2ef          	jal	t0,130 <__riscv_save_0>
    1a0e:	200007b7          	lui	a5,0x20000
    1a12:	08078793          	addi	a5,a5,128 # 20000080 <String_Descriptor>
    1a16:	058e                	slli	a1,a1,0x3
    1a18:	95be                	add	a1,a1,a5
    1a1a:	b27fe0ef          	jal	ra,540 <Standard_GetDescriptorData>
    1a1e:	f36fe06f          	j	154 <__riscv_restore_0>
    1a22:	4501                	li	a0,0
    1a24:	8082                	ret

00001a26 <USBD_Status_Out>:
    1a26:	8082                	ret

00001a28 <USBD_ClearFeature>:
    1a28:	8082                	ret

00001a2a <USBD_Status_In>:
    1a2a:	8082                	ret

00001a2c <PowerOn>:
    1a2c:	400067b7          	lui	a5,0x40006
    1a30:	4705                	li	a4,1
    1a32:	c4e7a023          	sw	a4,-960(a5) # 40005c40 <_eusrstack+0x20000c40>
    1a36:	c407a023          	sw	zero,-960(a5)
    1a3a:	6709                	lui	a4,0x2
    1a3c:	c407a223          	sw	zero,-956(a5)
    1a40:	c0070713          	addi	a4,a4,-1024 # 1c00 <processUSBData+0xa>
    1a44:	84e19623          	sh	a4,-1972(gp) # 200002ec <wInterrupt_Mask>
    1a48:	6709                	lui	a4,0x2
    1a4a:	c0070713          	addi	a4,a4,-1024 # 1c00 <processUSBData+0xa>
    1a4e:	c4e7a023          	sw	a4,-960(a5)
    1a52:	4501                	li	a0,0
    1a54:	8082                	ret

00001a56 <Suspend>:
    1a56:	edafe2ef          	jal	t0,130 <__riscv_save_0>
    1a5a:	400067b7          	lui	a5,0x40006
    1a5e:	c407a783          	lw	a5,-960(a5) # 40005c40 <_eusrstack+0x20000c40>
    1a62:	40006737          	lui	a4,0x40006
    1a66:	6841                	lui	a6,0x10
    1a68:	07c2                	slli	a5,a5,0x10
    1a6a:	83c1                	srli	a5,a5,0x10
    1a6c:	4681                	li	a3,0
    1a6e:	c0070313          	addi	t1,a4,-1024 # 40005c00 <_eusrstack+0x20000c00>
    1a72:	187d                	addi	a6,a6,-1
    1a74:	9e818593          	addi	a1,gp,-1560 # 20000488 <EP>
    1a78:	48a1                	li	a7,8
    1a7a:	00269613          	slli	a2,a3,0x2
    1a7e:	00660533          	add	a0,a2,t1
    1a82:	4108                	lw	a0,0(a0)
    1a84:	962e                	add	a2,a2,a1
    1a86:	0685                	addi	a3,a3,1
    1a88:	01057533          	and	a0,a0,a6
    1a8c:	c208                	sw	a0,0(a2)
    1a8e:	ff1696e3          	bne	a3,a7,1a7a <Suspend+0x24>
    1a92:	4007e693          	ori	a3,a5,1024
    1a96:	c4d72023          	sw	a3,-960(a4)
    1a9a:	4017e693          	ori	a3,a5,1025
    1a9e:	9bf9                	andi	a5,a5,-2
    1aa0:	07c2                	slli	a5,a5,0x10
    1aa2:	83c1                	srli	a5,a5,0x10
    1aa4:	c4d72023          	sw	a3,-960(a4)
    1aa8:	4007e693          	ori	a3,a5,1024
    1aac:	c4d72023          	sw	a3,-960(a4)
    1ab0:	400066b7          	lui	a3,0x40006
    1ab4:	c446a703          	lw	a4,-956(a3) # 40005c44 <_eusrstack+0x20000c44>
    1ab8:	40077713          	andi	a4,a4,1024
    1abc:	df65                	beqz	a4,1ab4 <Suspend+0x5e>
    1abe:	6741                	lui	a4,0x10
    1ac0:	bff70713          	addi	a4,a4,-1025 # fbff <_data_lma+0xbc77>
    1ac4:	c4e6a223          	sw	a4,-956(a3)
    1ac8:	6841                	lui	a6,0x10
    1aca:	40006737          	lui	a4,0x40006
    1ace:	4681                	li	a3,0
    1ad0:	c0070313          	addi	t1,a4,-1024 # 40005c00 <_eusrstack+0x20000c00>
    1ad4:	187d                	addi	a6,a6,-1
    1ad6:	48a1                	li	a7,8
    1ad8:	00269613          	slli	a2,a3,0x2
    1adc:	00c58533          	add	a0,a1,a2
    1ae0:	4108                	lw	a0,0(a0)
    1ae2:	961a                	add	a2,a2,t1
    1ae4:	0685                	addi	a3,a3,1
    1ae6:	01057533          	and	a0,a0,a6
    1aea:	c208                	sw	a0,0(a2)
    1aec:	ff1696e3          	bne	a3,a7,1ad8 <Suspend+0x82>
    1af0:	4087e793          	ori	a5,a5,1032
    1af4:	c4f72023          	sw	a5,-960(a4)
    1af8:	c4072783          	lw	a5,-960(a4)
    1afc:	07c2                	slli	a5,a5,0x10
    1afe:	83c1                	srli	a5,a5,0x10
    1b00:	0047e793          	ori	a5,a5,4
    1b04:	c4f72023          	sw	a5,-960(a4)
    1b08:	eb2ff0ef          	jal	ra,11ba <Enter_LowPowerMode>
    1b0c:	e48fe06f          	j	154 <__riscv_restore_0>

00001b10 <Resume_Init>:
    1b10:	e20fe2ef          	jal	t0,130 <__riscv_save_0>
    1b14:	40006437          	lui	s0,0x40006
    1b18:	c4042783          	lw	a5,-960(s0) # 40005c40 <_eusrstack+0x20000c40>
    1b1c:	07c2                	slli	a5,a5,0x10
    1b1e:	83c1                	srli	a5,a5,0x10
    1b20:	9bed                	andi	a5,a5,-5
    1b22:	07c2                	slli	a5,a5,0x10
    1b24:	83c1                	srli	a5,a5,0x10
    1b26:	c4f42023          	sw	a5,-960(s0)
    1b2a:	e98ff0ef          	jal	ra,11c2 <Leave_LowPowerMode>
    1b2e:	67b1                	lui	a5,0xc
    1b30:	f0078793          	addi	a5,a5,-256 # bf00 <_data_lma+0x7f78>
    1b34:	c4f42023          	sw	a5,-960(s0)
    1b38:	e1cfe06f          	j	154 <__riscv_restore_0>

00001b3c <Resume>:
    1b3c:	df4fe2ef          	jal	t0,130 <__riscv_save_0>
    1b40:	479d                	li	a5,7
    1b42:	86818413          	addi	s0,gp,-1944 # 20000308 <ResumeS>
    1b46:	00f50363          	beq	a0,a5,1b4c <Resume+0x10>
    1b4a:	c008                	sw	a0,0(s0)
    1b4c:	401c                	lw	a5,0(s0)
    1b4e:	4715                	li	a4,5
    1b50:	00f76d63          	bltu	a4,a5,1b6a <Resume+0x2e>
    1b54:	6711                	lui	a4,0x4
    1b56:	078a                	slli	a5,a5,0x2
    1b58:	ce870713          	addi	a4,a4,-792 # 3ce8 <USBD_StringVendor+0x10>
    1b5c:	97ba                	add	a5,a5,a4
    1b5e:	439c                	lw	a5,0(a5)
    1b60:	8782                	jr	a5
    1b62:	8741a783          	lw	a5,-1932(gp) # 20000314 <remotewakeupon>
    1b66:	e781                	bnez	a5,1b6e <Resume+0x32>
    1b68:	3765                	jal	1b10 <Resume_Init>
    1b6a:	4799                	li	a5,6
    1b6c:	a011                	j	1b70 <Resume+0x34>
    1b6e:	4795                	li	a5,5
    1b70:	c01c                	sw	a5,0(s0)
    1b72:	a039                	j	1b80 <Resume+0x44>
    1b74:	3f71                	jal	1b10 <Resume_Init>
    1b76:	4791                	li	a5,4
    1b78:	c01c                	sw	a5,0(s0)
    1b7a:	4705                	li	a4,1
    1b7c:	86e1aa23          	sw	a4,-1932(gp) # 20000314 <remotewakeupon>
    1b80:	dd4fe06f          	j	154 <__riscv_restore_0>
    1b84:	4789                	li	a5,2
    1b86:	a05c                	sb	a5,4(s0)
    1b88:	478d                	li	a5,3
    1b8a:	b7dd                	j	1b70 <Resume+0x34>
    1b8c:	205c                	lbu	a5,4(s0)
    1b8e:	17fd                	addi	a5,a5,-1
    1b90:	0ff7f793          	andi	a5,a5,255
    1b94:	a05c                	sb	a5,4(s0)
    1b96:	205c                	lbu	a5,4(s0)
    1b98:	0ff7f793          	andi	a5,a5,255
    1b9c:	f3f5                	bnez	a5,1b80 <Resume+0x44>
    1b9e:	4791                	li	a5,4
    1ba0:	bfc1                	j	1b70 <Resume+0x34>
    1ba2:	40006737          	lui	a4,0x40006
    1ba6:	c4072783          	lw	a5,-960(a4) # 40005c40 <_eusrstack+0x20000c40>
    1baa:	07c2                	slli	a5,a5,0x10
    1bac:	83c1                	srli	a5,a5,0x10
    1bae:	0107e793          	ori	a5,a5,16
    1bb2:	c4f72023          	sw	a5,-960(a4)
    1bb6:	4795                	li	a5,5
    1bb8:	c01c                	sw	a5,0(s0)
    1bba:	47a9                	li	a5,10
    1bbc:	a05c                	sb	a5,4(s0)
    1bbe:	b7c9                	j	1b80 <Resume+0x44>
    1bc0:	205c                	lbu	a5,4(s0)
    1bc2:	17fd                	addi	a5,a5,-1
    1bc4:	0ff7f793          	andi	a5,a5,255
    1bc8:	a05c                	sb	a5,4(s0)
    1bca:	205c                	lbu	a5,4(s0)
    1bcc:	0ff7f793          	andi	a5,a5,255
    1bd0:	fbc5                	bnez	a5,1b80 <Resume+0x44>
    1bd2:	40006737          	lui	a4,0x40006
    1bd6:	c4072783          	lw	a5,-960(a4) # 40005c40 <_eusrstack+0x20000c40>
    1bda:	07c2                	slli	a5,a5,0x10
    1bdc:	83c1                	srli	a5,a5,0x10
    1bde:	9bbd                	andi	a5,a5,-17
    1be0:	07c2                	slli	a5,a5,0x10
    1be2:	83c1                	srli	a5,a5,0x10
    1be4:	c4f72023          	sw	a5,-960(a4)
    1be8:	4799                	li	a5,6
    1bea:	c01c                	sw	a5,0(s0)
    1bec:	8601aa23          	sw	zero,-1932(gp) # 20000314 <remotewakeupon>
    1bf0:	bf41                	j	1b80 <Resume+0x44>

00001bf2 <NMI_Handler>:
    1bf2:	a001                	j	1bf2 <NMI_Handler>

00001bf4 <HardFault_Handler>:
    1bf4:	a001                	j	1bf4 <HardFault_Handler>

00001bf6 <processUSBData>:
    1bf6:	d20fe2ef          	jal	t0,116 <__riscv_save_4>
    1bfa:	1101                	addi	sp,sp,-32
    1bfc:	feaff0ef          	jal	ra,13e6 <usbSerial_available>
    1c00:	cd39                	beqz	a0,1c5e <processUSBData+0x68>
    1c02:	86019c23          	sh	zero,-1928(gp) # 20000318 <len>
    1c06:	a2818913          	addi	s2,gp,-1496 # 200004c8 <incommingData>
    1c0a:	87818413          	addi	s0,gp,-1928 # 20000318 <len>
    1c0e:	4a79                	li	s4,30
    1c10:	fd6ff0ef          	jal	ra,13e6 <usbSerial_available>
    1c14:	c501                	beqz	a0,1c1c <processUSBData+0x26>
    1c16:	2006                	lhu	s1,0(s0)
    1c18:	049a7663          	bgeu	s4,s1,1c64 <processUSBData+0x6e>
    1c1c:	201e                	lhu	a5,0(s0)
    1c1e:	000045b7          	lui	a1,0x4
    1c22:	01c10893          	addi	a7,sp,28
    1c26:	993e                	add	s2,s2,a5
    1c28:	01810813          	addi	a6,sp,24
    1c2c:	085c                	addi	a5,sp,20
    1c2e:	0818                	addi	a4,sp,16
    1c30:	0074                	addi	a3,sp,12
    1c32:	0030                	addi	a2,sp,8
    1c34:	d1c58593          	addi	a1,a1,-740 # 3d1c <USBD_StringVendor+0x44>
    1c38:	a2818513          	addi	a0,gp,-1496 # 200004c8 <incommingData>
    1c3c:	00090023          	sb	zero,0(s2)
    1c40:	1f1000ef          	jal	ra,2630 <siscanf>
    1c44:	4799                	li	a5,6
    1c46:	02f51763          	bne	a0,a5,1c74 <processUSBData+0x7e>
    1c4a:	01c14783          	lbu	a5,28(sp)
    1c4e:	01814703          	lbu	a4,24(sp)
    1c52:	01414683          	lbu	a3,20(sp)
    1c56:	8410                	lbu	a2,8(sp)
    1c58:	860c                	lbu	a1,12(sp)
    1c5a:	80a8                	lhu	a0,16(sp)
    1c5c:	20e9                	jal	1d26 <RTC_Set>
    1c5e:	6105                	addi	sp,sp,32
    1c60:	ceafe06f          	j	14a <__riscv_restore_4>
    1c64:	00148793          	addi	a5,s1,1 # 10001 <_data_lma+0xc079>
    1c68:	a01e                	sh	a5,0(s0)
    1c6a:	94ca                	add	s1,s1,s2
    1c6c:	f8aff0ef          	jal	ra,13f6 <usbSerial_read>
    1c70:	a088                	sb	a0,0(s1)
    1c72:	bf79                	j	1c10 <processUSBData+0x1a>
    1c74:	00004437          	lui	s0,0x4
    1c78:	d3040513          	addi	a0,s0,-720 # 3d30 <USBD_StringVendor+0x58>
    1c7c:	29ed                	jal	2176 <usbSerial_println_s>
    1c7e:	00004537          	lui	a0,0x4
    1c82:	d4c50513          	addi	a0,a0,-692 # 3d4c <USBD_StringVendor+0x74>
    1c86:	29c5                	jal	2176 <usbSerial_println_s>
    1c88:	00004537          	lui	a0,0x4
    1c8c:	d6850513          	addi	a0,a0,-664 # 3d68 <USBD_StringVendor+0x90>
    1c90:	21dd                	jal	2176 <usbSerial_println_s>
    1c92:	00004537          	lui	a0,0x4
    1c96:	d8450513          	addi	a0,a0,-636 # 3d84 <USBD_StringVendor+0xac>
    1c9a:	29f1                	jal	2176 <usbSerial_println_s>
    1c9c:	d3040513          	addi	a0,s0,-720
    1ca0:	29d9                	jal	2176 <usbSerial_println_s>
    1ca2:	ea4ff0ef          	jal	ra,1346 <usbSerial_flush>
    1ca6:	bf65                	j	1c5e <processUSBData+0x68>

00001ca8 <main>:
    1ca8:	c6efe2ef          	jal	t0,116 <__riscv_save_4>
    1cac:	4505                	li	a0,1
    1cae:	2bf1                	jal	228a <NVIC_PriorityGroupConfig>
    1cb0:	2139                	jal	20be <SystemCoreClockUpdate>
    1cb2:	0b9000ef          	jal	ra,256a <Delay_Init>
    1cb6:	2469                	jal	1f40 <RTC_Init>
    1cb8:	dfaff0ef          	jal	ra,12b2 <usbSerial_start>
    1cbc:	1f400513          	li	a0,500
    1cc0:	0d1000ef          	jal	ra,2590 <Delay_Ms>
    1cc4:	a4818413          	addi	s0,gp,-1464 # 200004e8 <calendar>
    1cc8:	000049b7          	lui	s3,0x4
    1ccc:	3e800513          	li	a0,1000
    1cd0:	0c1000ef          	jal	ra,2590 <Delay_Ms>
    1cd4:	370d                	jal	1bf6 <processUSBData>
    1cd6:	3070                	lbu	a2,7(s0)
    1cd8:	2074                	lbu	a3,6(s0)
    1cda:	205a                	lhu	a4,4(s0)
    1cdc:	a481c783          	lbu	a5,-1464(gp) # 200004e8 <calendar>
    1ce0:	00144803          	lbu	a6,1(s0)
    1ce4:	00244883          	lbu	a7,2(s0)
    1ce8:	d0098593          	addi	a1,s3,-768 # 3d00 <USBD_StringVendor+0x28>
    1cec:	a0818513          	addi	a0,gp,-1528 # 200004a8 <buffer>
    1cf0:	0fd000ef          	jal	ra,25ec <siprintf>
    1cf4:	a0818513          	addi	a0,gp,-1528 # 200004a8 <buffer>
    1cf8:	29bd                	jal	2176 <usbSerial_println_s>
    1cfa:	e4cff0ef          	jal	ra,1346 <usbSerial_flush>
    1cfe:	b7f9                	j	1ccc <main+0x24>

00001d00 <Is_Leap_Year>:
    1d00:	00357793          	andi	a5,a0,3
    1d04:	ef99                	bnez	a5,1d22 <Is_Leap_Year+0x22>
    1d06:	06400713          	li	a4,100
    1d0a:	02e57733          	remu	a4,a0,a4
    1d0e:	4785                	li	a5,1
    1d10:	e719                	bnez	a4,1d1e <Is_Leap_Year+0x1e>
    1d12:	19000793          	li	a5,400
    1d16:	02f57533          	remu	a0,a0,a5
    1d1a:	00153793          	seqz	a5,a0
    1d1e:	853e                	mv	a0,a5
    1d20:	8082                	ret
    1d22:	4781                	li	a5,0
    1d24:	bfed                	j	1d1e <Is_Leap_Year+0x1e>

00001d26 <RTC_Set>:
    1d26:	84e50813          	addi	a6,a0,-1970
    1d2a:	0842                	slli	a6,a6,0x10
    1d2c:	01085813          	srli	a6,a6,0x10
    1d30:	08100893          	li	a7,129
    1d34:	0d08e263          	bltu	a7,a6,1df8 <RTC_Set+0xd2>
    1d38:	bc8fe2ef          	jal	t0,100 <__riscv_save_12>
    1d3c:	01e13c37          	lui	s8,0x1e13
    1d40:	01e28cb7          	lui	s9,0x1e28
    1d44:	8b3e                	mv	s6,a5
    1d46:	843a                	mv	s0,a4
    1d48:	8ab6                	mv	s5,a3
    1d4a:	8932                	mv	s2,a2
    1d4c:	89ae                	mv	s3,a1
    1d4e:	8baa                	mv	s7,a0
    1d50:	4481                	li	s1,0
    1d52:	7b200a13          	li	s4,1970
    1d56:	380c0c13          	addi	s8,s8,896 # 1e13380 <_data_lma+0x1e0f3f8>
    1d5a:	500c8c93          	addi	s9,s9,1280 # 1e28500 <_data_lma+0x1e24578>
    1d5e:	074b9463          	bne	s7,s4,1dc6 <RTC_Set+0xa0>
    1d62:	19fd                	addi	s3,s3,-1
    1d64:	6c91                	lui	s9,0x4
    1d66:	6c55                	lui	s8,0x15
    1d68:	4a01                	li	s4,0
    1d6a:	0ff9f993          	andi	s3,s3,255
    1d6e:	da0c8c93          	addi	s9,s9,-608 # 3da0 <mon_table>
    1d72:	180c0c13          	addi	s8,s8,384 # 15180 <_data_lma+0x111f8>
    1d76:	4d85                	li	s11,1
    1d78:	010a1d13          	slli	s10,s4,0x10
    1d7c:	010d5d13          	srli	s10,s10,0x10
    1d80:	053d6e63          	bltu	s10,s3,1ddc <RTC_Set+0xb6>
    1d84:	03c00713          	li	a4,60
    1d88:	6685                	lui	a3,0x1
    1d8a:	02e40433          	mul	s0,s0,a4
    1d8e:	e1068693          	addi	a3,a3,-496 # e10 <PMAToUserBufferCopy+0x18>
    1d92:	6655                	lui	a2,0x15
    1d94:	18060613          	addi	a2,a2,384 # 15180 <_data_lma+0x111f8>
    1d98:	197d                	addi	s2,s2,-1
    1d9a:	4585                	li	a1,1
    1d9c:	18000537          	lui	a0,0x18000
    1da0:	02da8ab3          	mul	s5,s5,a3
    1da4:	945a                	add	s0,s0,s6
    1da6:	02c90933          	mul	s2,s2,a2
    1daa:	9456                	add	s0,s0,s5
    1dac:	2bc5                	jal	239c <RCC_APB1PeriphClockCmd>
    1dae:	4505                	li	a0,1
    1db0:	2b15                	jal	22e4 <PWR_BackupAccessCmd>
    1db2:	944a                	add	s0,s0,s2
    1db4:	9426                	add	s0,s0,s1
    1db6:	8522                	mv	a0,s0
    1db8:	6ee000ef          	jal	ra,24a6 <RTC_SetCounter>
    1dbc:	73c000ef          	jal	ra,24f8 <RTC_WaitForLastTask>
    1dc0:	4501                	li	a0,0
    1dc2:	b7afe06f          	j	13c <__riscv_restore_12>
    1dc6:	8552                	mv	a0,s4
    1dc8:	3f25                	jal	1d00 <Is_Leap_Year>
    1dca:	c519                	beqz	a0,1dd8 <RTC_Set+0xb2>
    1dcc:	94e6                	add	s1,s1,s9
    1dce:	0a05                	addi	s4,s4,1
    1dd0:	0a42                	slli	s4,s4,0x10
    1dd2:	010a5a13          	srli	s4,s4,0x10
    1dd6:	b761                	j	1d5e <RTC_Set+0x38>
    1dd8:	94e2                	add	s1,s1,s8
    1dda:	bfd5                	j	1dce <RTC_Set+0xa8>
    1ddc:	014c87b3          	add	a5,s9,s4
    1de0:	239c                	lbu	a5,0(a5)
    1de2:	855e                	mv	a0,s7
    1de4:	038787b3          	mul	a5,a5,s8
    1de8:	94be                	add	s1,s1,a5
    1dea:	3f19                	jal	1d00 <Is_Leap_Year>
    1dec:	c501                	beqz	a0,1df4 <RTC_Set+0xce>
    1dee:	01bd1363          	bne	s10,s11,1df4 <RTC_Set+0xce>
    1df2:	94e2                	add	s1,s1,s8
    1df4:	0a05                	addi	s4,s4,1
    1df6:	b749                	j	1d78 <RTC_Set+0x52>
    1df8:	4505                	li	a0,1
    1dfa:	8082                	ret

00001dfc <RTC_Get_Week>:
    1dfc:	06400713          	li	a4,100
    1e00:	02e577b3          	remu	a5,a0,a4
    1e04:	02e55533          	divu	a0,a0,a4
    1e08:	474d                	li	a4,19
    1e0a:	0ff57513          	andi	a0,a0,255
    1e0e:	00a77463          	bgeu	a4,a0,1e16 <RTC_Get_Week+0x1a>
    1e12:	06478793          	addi	a5,a5,100
    1e16:	0027d513          	srli	a0,a5,0x2
    1e1a:	953e                	add	a0,a0,a5
    1e1c:	471d                	li	a4,7
    1e1e:	02e57533          	remu	a0,a0,a4
    1e22:	6711                	lui	a4,0x4
    1e24:	dac70713          	addi	a4,a4,-596 # 3dac <table_week>
    1e28:	972e                	add	a4,a4,a1
    1e2a:	fff74703          	lbu	a4,-1(a4)
    1e2e:	8b8d                	andi	a5,a5,3
    1e30:	963a                	add	a2,a2,a4
    1e32:	962a                	add	a2,a2,a0
    1e34:	e799                	bnez	a5,1e42 <RTC_Get_Week+0x46>
    1e36:	4789                	li	a5,2
    1e38:	00b7e563          	bltu	a5,a1,1e42 <RTC_Get_Week+0x46>
    1e3c:	167d                	addi	a2,a2,-1
    1e3e:	0642                	slli	a2,a2,0x10
    1e40:	8241                	srli	a2,a2,0x10
    1e42:	451d                	li	a0,7
    1e44:	02a67533          	remu	a0,a2,a0
    1e48:	8082                	ret

00001e4a <RTC_Get>:
    1e4a:	abefe2ef          	jal	t0,108 <__riscv_save_10>
    1e4e:	6455                	lui	s0,0x15
    1e50:	2bf5                	jal	244c <RTC_GetCounter>
    1e52:	18040413          	addi	s0,s0,384 # 15180 <_data_lma+0x111f8>
    1e56:	02855433          	divu	s0,a0,s0
    1e5a:	87a18793          	addi	a5,gp,-1926 # 2000031a <daycnt.4717>
    1e5e:	239a                	lhu	a4,0(a5)
    1e60:	84aa                	mv	s1,a0
    1e62:	06870463          	beq	a4,s0,1eca <RTC_Get+0x80>
    1e66:	a382                	sh	s0,0(a5)
    1e68:	7b200913          	li	s2,1970
    1e6c:	16c00993          	li	s3,364
    1e70:	16d00a13          	li	s4,365
    1e74:	0289f163          	bgeu	s3,s0,1e96 <RTC_Get+0x4c>
    1e78:	854a                	mv	a0,s2
    1e7a:	3559                	jal	1d00 <Is_Leap_Year>
    1e7c:	0905                	addi	s2,s2,1
    1e7e:	c949                	beqz	a0,1f10 <RTC_Get+0xc6>
    1e80:	01440863          	beq	s0,s4,1e90 <RTC_Get+0x46>
    1e84:	e9240413          	addi	s0,s0,-366
    1e88:	0942                	slli	s2,s2,0x10
    1e8a:	01095913          	srli	s2,s2,0x10
    1e8e:	b7dd                	j	1e74 <RTC_Get+0x2a>
    1e90:	0942                	slli	s2,s2,0x10
    1e92:	01095913          	srli	s2,s2,0x10
    1e96:	a4818713          	addi	a4,gp,-1464 # 200004e8 <calendar>
    1e9a:	6a91                	lui	s5,0x4
    1e9c:	01271223          	sh	s2,4(a4)
    1ea0:	4981                	li	s3,0
    1ea2:	a4818913          	addi	s2,gp,-1464 # 200004e8 <calendar>
    1ea6:	4b6d                	li	s6,27
    1ea8:	da0a8a93          	addi	s5,s5,-608 # 3da0 <mon_table>
    1eac:	4b85                	li	s7,1
    1eae:	4c71                	li	s8,28
    1eb0:	00198a13          	addi	s4,s3,1
    1eb4:	068b6163          	bltu	s6,s0,1f16 <RTC_Get+0xcc>
    1eb8:	0ffa7a13          	andi	s4,s4,255
    1ebc:	0405                	addi	s0,s0,1
    1ebe:	01490323          	sb	s4,6(s2)
    1ec2:	0ff47413          	andi	s0,s0,255
    1ec6:	008903a3          	sb	s0,7(s2)
    1eca:	67d5                	lui	a5,0x15
    1ecc:	18078793          	addi	a5,a5,384 # 15180 <_data_lma+0x111f8>
    1ed0:	02f4f4b3          	remu	s1,s1,a5
    1ed4:	6785                	lui	a5,0x1
    1ed6:	e1078793          	addi	a5,a5,-496 # e10 <PMAToUserBufferCopy+0x18>
    1eda:	a4818413          	addi	s0,gp,-1464 # 200004e8 <calendar>
    1ede:	02f4d733          	divu	a4,s1,a5
    1ee2:	02f4f4b3          	remu	s1,s1,a5
    1ee6:	0ff77713          	andi	a4,a4,255
    1eea:	a018                	sb	a4,0(s0)
    1eec:	03c00713          	li	a4,60
    1ef0:	02e4d7b3          	divu	a5,s1,a4
    1ef4:	02e4f4b3          	remu	s1,s1,a4
    1ef8:	0ff7f793          	andi	a5,a5,255
    1efc:	b01c                	sb	a5,1(s0)
    1efe:	a024                	sb	s1,2(s0)
    1f00:	204a                	lhu	a0,4(s0)
    1f02:	206c                	lbu	a1,6(s0)
    1f04:	3070                	lbu	a2,7(s0)
    1f06:	3ddd                	jal	1dfc <RTC_Get_Week>
    1f08:	a408                	sb	a0,8(s0)
    1f0a:	4501                	li	a0,0
    1f0c:	a34fe06f          	j	140 <__riscv_restore_10>
    1f10:	e9340413          	addi	s0,s0,-365
    1f14:	bf95                	j	1e88 <RTC_Get+0x3e>
    1f16:	00495503          	lhu	a0,4(s2)
    1f1a:	33dd                	jal	1d00 <Is_Leap_Year>
    1f1c:	c919                	beqz	a0,1f32 <RTC_Get+0xe8>
    1f1e:	01799a63          	bne	s3,s7,1f32 <RTC_Get+0xe8>
    1f22:	f9840be3          	beq	s0,s8,1eb8 <RTC_Get+0x6e>
    1f26:	140d                	addi	s0,s0,-29
    1f28:	010a1993          	slli	s3,s4,0x10
    1f2c:	0109d993          	srli	s3,s3,0x10
    1f30:	b741                	j	1eb0 <RTC_Get+0x66>
    1f32:	99d6                	add	s3,s3,s5
    1f34:	0009c783          	lbu	a5,0(s3)
    1f38:	f8f460e3          	bltu	s0,a5,1eb8 <RTC_Get+0x6e>
    1f3c:	8c1d                	sub	s0,s0,a5
    1f3e:	b7ed                	j	1f28 <RTC_Get+0xde>

00001f40 <RTC_Init>:
    1f40:	9f0fe2ef          	jal	t0,130 <__riscv_save_0>
    1f44:	1141                	addi	sp,sp,-16
    1f46:	4585                	li	a1,1
    1f48:	18000537          	lui	a0,0x18000
    1f4c:	2981                	jal	239c <RCC_APB1PeriphClockCmd>
    1f4e:	4505                	li	a0,1
    1f50:	2e51                	jal	22e4 <PWR_BackupAccessCmd>
    1f52:	4511                	li	a0,4
    1f54:	2e29                	jal	226e <BKP_ReadBackupRegister>
    1f56:	67a9                	lui	a5,0xa
    1f58:	1a178793          	addi	a5,a5,417 # a1a1 <_data_lma+0x6219>
    1f5c:	08f50663          	beq	a0,a5,1fe8 <RTC_Init+0xa8>
    1f60:	24cd                	jal	2242 <BKP_DeInit>
    1f62:	4505                	li	a0,1
    1f64:	26d9                	jal	232a <RCC_LSEConfig>
    1f66:	4401                	li	s0,0
    1f68:	0fa00493          	li	s1,250
    1f6c:	04100513          	li	a0,65
    1f70:	21ad                	jal	23da <RCC_GetFlagStatus>
    1f72:	ed09                	bnez	a0,1f8c <RTC_Init+0x4c>
    1f74:	00941663          	bne	s0,s1,1f80 <RTC_Init+0x40>
    1f78:	4505                	li	a0,1
    1f7a:	0141                	addi	sp,sp,16
    1f7c:	9d8fe06f          	j	154 <__riscv_restore_0>
    1f80:	0405                	addi	s0,s0,1
    1f82:	4551                	li	a0,20
    1f84:	0ff47413          	andi	s0,s0,255
    1f88:	2521                	jal	2590 <Delay_Ms>
    1f8a:	b7cd                	j	1f6c <RTC_Init+0x2c>
    1f8c:	0fa00793          	li	a5,250
    1f90:	4505                	li	a0,1
    1f92:	fef404e3          	beq	s0,a5,1f7a <RTC_Init+0x3a>
    1f96:	10000513          	li	a0,256
    1f9a:	2e65                	jal	2352 <RCC_RTCCLKConfig>
    1f9c:	4505                	li	a0,1
    1f9e:	26c1                	jal	235e <RCC_RTCCLKCmd>
    1fa0:	2ba1                	jal	24f8 <RTC_WaitForLastTask>
    1fa2:	239d                	jal	2508 <RTC_WaitForSynchro>
    1fa4:	4585                	li	a1,1
    1fa6:	4505                	li	a0,1
    1fa8:	2185                	jal	2408 <RTC_ITConfig>
    1faa:	23b9                	jal	24f8 <RTC_WaitForLastTask>
    1fac:	299d                	jal	2422 <RTC_EnterConfigMode>
    1fae:	6521                	lui	a0,0x8
    1fb0:	157d                	addi	a0,a0,-1
    1fb2:	2b31                	jal	24ce <RTC_SetPrescaler>
    1fb4:	2391                	jal	24f8 <RTC_WaitForLastTask>
    1fb6:	4591                	li	a1,4
    1fb8:	4781                	li	a5,0
    1fba:	4729                	li	a4,10
    1fbc:	46b5                	li	a3,13
    1fbe:	4619                	li	a2,6
    1fc0:	7e900513          	li	a0,2025
    1fc4:	d63ff0ef          	jal	ra,1d26 <RTC_Set>
    1fc8:	21b5                	jal	2434 <RTC_ExitConfigMode>
    1fca:	65a9                	lui	a1,0xa
    1fcc:	1a158593          	addi	a1,a1,417 # a1a1 <_data_lma+0x6219>
    1fd0:	4511                	li	a0,4
    1fd2:	2441                	jal	2252 <BKP_WriteBackupRegister>
    1fd4:	c402                	sw	zero,8(sp)
    1fd6:	47cd                	li	a5,19
    1fd8:	845c                	sb	a5,8(sp)
    1fda:	0028                	addi	a0,sp,8
    1fdc:	4785                	li	a5,1
    1fde:	c63e                	sw	a5,12(sp)
    1fe0:	2c45                	jal	2290 <NVIC_Init>
    1fe2:	35a5                	jal	1e4a <RTC_Get>
    1fe4:	4501                	li	a0,0
    1fe6:	bf51                	j	1f7a <RTC_Init+0x3a>
    1fe8:	4501                	li	a0,0
    1fea:	2e01                	jal	22fa <PWR_WakeUpPinCmd>
    1fec:	2b31                	jal	2508 <RTC_WaitForSynchro>
    1fee:	4585                	li	a1,1
    1ff0:	4505                	li	a0,1
    1ff2:	2919                	jal	2408 <RTC_ITConfig>
    1ff4:	2311                	jal	24f8 <RTC_WaitForLastTask>
    1ff6:	bff9                	j	1fd4 <RTC_Init+0x94>

00001ff8 <RTC_IRQHandler>:
    1ff8:	4505                	li	a0,1
    1ffa:	2399                	jal	2540 <RTC_GetITStatus>
    1ffc:	c111                	beqz	a0,2000 <RTC_IRQHandler+0x8>
    1ffe:	35b1                	jal	1e4a <RTC_Get>
    2000:	4509                	li	a0,2
    2002:	2b3d                	jal	2540 <RTC_GetITStatus>
    2004:	c501                	beqz	a0,200c <RTC_IRQHandler+0x14>
    2006:	4509                	li	a0,2
    2008:	2ba1                	jal	2560 <RTC_ClearITPendingBit>
    200a:	3581                	jal	1e4a <RTC_Get>
    200c:	4515                	li	a0,5
    200e:	2b89                	jal	2560 <RTC_ClearITPendingBit>
    2010:	21e5                	jal	24f8 <RTC_WaitForLastTask>
    2012:	30200073          	mret

00002016 <SystemInit>:
    2016:	400217b7          	lui	a5,0x40021
    201a:	4398                	lw	a4,0(a5)
    201c:	f0ff06b7          	lui	a3,0xf0ff0
    2020:	00176713          	ori	a4,a4,1
    2024:	c398                	sw	a4,0(a5)
    2026:	43d8                	lw	a4,4(a5)
    2028:	8f75                	and	a4,a4,a3
    202a:	c3d8                	sw	a4,4(a5)
    202c:	4398                	lw	a4,0(a5)
    202e:	fef706b7          	lui	a3,0xfef70
    2032:	16fd                	addi	a3,a3,-1
    2034:	8f75                	and	a4,a4,a3
    2036:	c398                	sw	a4,0(a5)
    2038:	4398                	lw	a4,0(a5)
    203a:	fffc06b7          	lui	a3,0xfffc0
    203e:	16fd                	addi	a3,a3,-1
    2040:	8f75                	and	a4,a4,a3
    2042:	c398                	sw	a4,0(a5)
    2044:	43d8                	lw	a4,4(a5)
    2046:	ff0106b7          	lui	a3,0xff010
    204a:	16fd                	addi	a3,a3,-1
    204c:	8f75                	and	a4,a4,a3
    204e:	c3d8                	sw	a4,4(a5)
    2050:	009f0737          	lui	a4,0x9f0
    2054:	c798                	sw	a4,8(a5)
    2056:	400246b7          	lui	a3,0x40024
    205a:	8006a703          	lw	a4,-2048(a3) # 40023800 <_eusrstack+0x2001e800>
    205e:	01076713          	ori	a4,a4,16
    2062:	80e6a023          	sw	a4,-2048(a3)
    2066:	43d8                	lw	a4,4(a5)
    2068:	ffc106b7          	lui	a3,0xffc10
    206c:	16fd                	addi	a3,a3,-1
    206e:	c3d8                	sw	a4,4(a5)
    2070:	43d8                	lw	a4,4(a5)
    2072:	c3d8                	sw	a4,4(a5)
    2074:	43d8                	lw	a4,4(a5)
    2076:	40076713          	ori	a4,a4,1024
    207a:	c3d8                	sw	a4,4(a5)
    207c:	43d8                	lw	a4,4(a5)
    207e:	8f75                	and	a4,a4,a3
    2080:	c3d8                	sw	a4,4(a5)
    2082:	43d8                	lw	a4,4(a5)
    2084:	001006b7          	lui	a3,0x100
    2088:	8f55                	or	a4,a4,a3
    208a:	c3d8                	sw	a4,4(a5)
    208c:	4398                	lw	a4,0(a5)
    208e:	010006b7          	lui	a3,0x1000
    2092:	8f55                	or	a4,a4,a3
    2094:	c398                	sw	a4,0(a5)
    2096:	4398                	lw	a4,0(a5)
    2098:	00671693          	slli	a3,a4,0x6
    209c:	fe06dde3          	bgez	a3,2096 <SystemInit+0x80>
    20a0:	43d8                	lw	a4,4(a5)
    20a2:	400216b7          	lui	a3,0x40021
    20a6:	9b71                	andi	a4,a4,-4
    20a8:	c3d8                	sw	a4,4(a5)
    20aa:	43d8                	lw	a4,4(a5)
    20ac:	00276713          	ori	a4,a4,2
    20b0:	c3d8                	sw	a4,4(a5)
    20b2:	4721                	li	a4,8
    20b4:	42dc                	lw	a5,4(a3)
    20b6:	8bb1                	andi	a5,a5,12
    20b8:	fee79ee3          	bne	a5,a4,20b4 <SystemInit+0x9e>
    20bc:	8082                	ret

000020be <SystemCoreClockUpdate>:
    20be:	400216b7          	lui	a3,0x40021
    20c2:	42dc                	lw	a5,4(a3)
    20c4:	4611                	li	a2,4
    20c6:	8bb1                	andi	a5,a5,12
    20c8:	82418713          	addi	a4,gp,-2012 # 200002c4 <SystemCoreClock>
    20cc:	00c78563          	beq	a5,a2,20d6 <SystemCoreClockUpdate+0x18>
    20d0:	4621                	li	a2,8
    20d2:	02c78863          	beq	a5,a2,2102 <SystemCoreClockUpdate+0x44>
    20d6:	007a17b7          	lui	a5,0x7a1
    20da:	20078793          	addi	a5,a5,512 # 7a1200 <_data_lma+0x79d278>
    20de:	c31c                	sw	a5,0(a4)
    20e0:	400217b7          	lui	a5,0x40021
    20e4:	43dc                	lw	a5,4(a5)
    20e6:	8391                	srli	a5,a5,0x4
    20e8:	00f7f693          	andi	a3,a5,15
    20ec:	200007b7          	lui	a5,0x20000
    20f0:	0c478793          	addi	a5,a5,196 # 200000c4 <AHBPrescTable>
    20f4:	97b6                	add	a5,a5,a3
    20f6:	2394                	lbu	a3,0(a5)
    20f8:	431c                	lw	a5,0(a4)
    20fa:	00d7d7b3          	srl	a5,a5,a3
    20fe:	c31c                	sw	a5,0(a4)
    2100:	8082                	ret
    2102:	42dc                	lw	a5,4(a3)
    2104:	42d4                	lw	a3,4(a3)
    2106:	6641                	lui	a2,0x10
    2108:	83c9                	srli	a5,a5,0x12
    210a:	8bbd                	andi	a5,a5,15
    210c:	8ef1                	and	a3,a3,a2
    210e:	0789                	addi	a5,a5,2
    2110:	4645                	li	a2,17
    2112:	00c79363          	bne	a5,a2,2118 <SystemCoreClockUpdate+0x5a>
    2116:	47c9                	li	a5,18
    2118:	ee81                	bnez	a3,2130 <SystemCoreClockUpdate+0x72>
    211a:	400246b7          	lui	a3,0x40024
    211e:	8006a683          	lw	a3,-2048(a3) # 40023800 <_eusrstack+0x2001e800>
    2122:	8ac1                	andi	a3,a3,16
    2124:	ce89                	beqz	a3,213e <SystemCoreClockUpdate+0x80>
    2126:	007a16b7          	lui	a3,0x7a1
    212a:	20068693          	addi	a3,a3,512 # 7a1200 <_data_lma+0x79d278>
    212e:	a821                	j	2146 <SystemCoreClockUpdate+0x88>
    2130:	400216b7          	lui	a3,0x40021
    2134:	42d4                	lw	a3,4(a3)
    2136:	00e69613          	slli	a2,a3,0xe
    213a:	fe0656e3          	bgez	a2,2126 <SystemCoreClockUpdate+0x68>
    213e:	003d16b7          	lui	a3,0x3d1
    2142:	90068693          	addi	a3,a3,-1792 # 3d0900 <_data_lma+0x3cc978>
    2146:	02d787b3          	mul	a5,a5,a3
    214a:	bf51                	j	20de <SystemCoreClockUpdate+0x20>

0000214c <getLen>:
    214c:	4781                	li	a5,0
    214e:	46e5                	li	a3,25
    2150:	0ff00593          	li	a1,255
    2154:	00f50633          	add	a2,a0,a5
    2158:	00060603          	lb	a2,0(a2) # 10000 <_data_lma+0xc078>
    215c:	01079713          	slli	a4,a5,0x10
    2160:	8341                	srli	a4,a4,0x10
    2162:	00c6c463          	blt	a3,a2,216a <getLen+0x1e>
    2166:	853a                	mv	a0,a4
    2168:	8082                	ret
    216a:	0785                	addi	a5,a5,1
    216c:	feb794e3          	bne	a5,a1,2154 <getLen+0x8>
    2170:	0ff00713          	li	a4,255
    2174:	bfcd                	j	2166 <getLen+0x1a>

00002176 <usbSerial_println_s>:
    2176:	fbbfd2ef          	jal	t0,130 <__riscv_save_0>
    217a:	7119                	addi	sp,sp,-128
    217c:	842a                	mv	s0,a0
    217e:	37f9                	jal	214c <getLen>
    2180:	4781                	li	a5,0
    2182:	02a7e163          	bltu	a5,a0,21a4 <usbSerial_println_s+0x2e>
    2186:	00150593          	addi	a1,a0,1 # 8001 <_data_lma+0x4079>
    218a:	011c                	addi	a5,sp,128
    218c:	05c2                	slli	a1,a1,0x10
    218e:	97aa                	add	a5,a5,a0
    2190:	4729                	li	a4,10
    2192:	850a                	mv	a0,sp
    2194:	81c1                	srli	a1,a1,0x10
    2196:	f8e78023          	sb	a4,-128(a5)
    219a:	9faff0ef          	jal	ra,1394 <usbSerial_writeP>
    219e:	6109                	addi	sp,sp,128
    21a0:	fb5fd06f          	j	154 <__riscv_restore_0>
    21a4:	00f406b3          	add	a3,s0,a5
    21a8:	2294                	lbu	a3,0(a3)
    21aa:	0118                	addi	a4,sp,128
    21ac:	973e                	add	a4,a4,a5
    21ae:	0785                	addi	a5,a5,1
    21b0:	f8d70023          	sb	a3,-128(a4) # 9eff80 <_data_lma+0x9ebff8>
    21b4:	0ff7f793          	andi	a5,a5,255
    21b8:	b7e9                	j	2182 <usbSerial_println_s+0xc>

000021ba <ADC1_2_IRQHandler>:
    21ba:	a001                	j	21ba <ADC1_2_IRQHandler>

000021bc <handle_reset>:
    21bc:	1ffff197          	auipc	gp,0x1ffff
    21c0:	8e418193          	addi	gp,gp,-1820 # 20000aa0 <__global_pointer$>
    21c4:	20003117          	auipc	sp,0x20003
    21c8:	e3c10113          	addi	sp,sp,-452 # 20005000 <_eusrstack>
    21cc:	00002517          	auipc	a0,0x2
    21d0:	dbc50513          	addi	a0,a0,-580 # 3f88 <_data_lma>
    21d4:	1fffe597          	auipc	a1,0x1fffe
    21d8:	e2c58593          	addi	a1,a1,-468 # 20000000 <_data_vma>
    21dc:	83818613          	addi	a2,gp,-1992 # 200002d8 <_edata>
    21e0:	00c5fa63          	bgeu	a1,a2,21f4 <handle_reset+0x38>
    21e4:	00052283          	lw	t0,0(a0)
    21e8:	0055a023          	sw	t0,0(a1)
    21ec:	0511                	addi	a0,a0,4
    21ee:	0591                	addi	a1,a1,4
    21f0:	fec5eae3          	bltu	a1,a2,21e4 <handle_reset+0x28>
    21f4:	83818513          	addi	a0,gp,-1992 # 200002d8 <_edata>
    21f8:	a5818593          	addi	a1,gp,-1448 # 200004f8 <_ebss>
    21fc:	00b57763          	bgeu	a0,a1,220a <handle_reset+0x4e>
    2200:	00052023          	sw	zero,0(a0)
    2204:	0511                	addi	a0,a0,4
    2206:	feb56de3          	bltu	a0,a1,2200 <handle_reset+0x44>
    220a:	42fd                	li	t0,31
    220c:	bc029073          	csrw	0xbc0,t0
    2210:	428d                	li	t0,3
    2212:	80429073          	csrw	0x804,t0
    2216:	08800293          	li	t0,136
    221a:	30029073          	csrw	mstatus,t0
    221e:	ffffe297          	auipc	t0,0xffffe
    2222:	de628293          	addi	t0,t0,-538 # 4 <_einit>
    2226:	0032e293          	ori	t0,t0,3
    222a:	30529073          	csrw	mtvec,t0
    222e:	de9ff0ef          	jal	ra,2016 <SystemInit>
    2232:	00000297          	auipc	t0,0x0
    2236:	a7628293          	addi	t0,t0,-1418 # 1ca8 <main>
    223a:	34129073          	csrw	mepc,t0
    223e:	30200073          	mret

00002242 <BKP_DeInit>:
    2242:	eeffd2ef          	jal	t0,130 <__riscv_save_0>
    2246:	4505                	li	a0,1
    2248:	2a8d                	jal	23ba <RCC_BackupResetCmd>
    224a:	4501                	li	a0,0
    224c:	22bd                	jal	23ba <RCC_BackupResetCmd>
    224e:	f07fd06f          	j	154 <__riscv_restore_0>

00002252 <BKP_WriteBackupRegister>:
    2252:	1141                	addi	sp,sp,-16
    2254:	400077b7          	lui	a5,0x40007
    2258:	c602                	sw	zero,12(sp)
    225a:	c0078793          	addi	a5,a5,-1024 # 40006c00 <_eusrstack+0x20001c00>
    225e:	c63e                	sw	a5,12(sp)
    2260:	47b2                	lw	a5,12(sp)
    2262:	953e                	add	a0,a0,a5
    2264:	c62a                	sw	a0,12(sp)
    2266:	47b2                	lw	a5,12(sp)
    2268:	c38c                	sw	a1,0(a5)
    226a:	0141                	addi	sp,sp,16
    226c:	8082                	ret

0000226e <BKP_ReadBackupRegister>:
    226e:	1141                	addi	sp,sp,-16
    2270:	400077b7          	lui	a5,0x40007
    2274:	c602                	sw	zero,12(sp)
    2276:	c0078793          	addi	a5,a5,-1024 # 40006c00 <_eusrstack+0x20001c00>
    227a:	c63e                	sw	a5,12(sp)
    227c:	47b2                	lw	a5,12(sp)
    227e:	953e                	add	a0,a0,a5
    2280:	c62a                	sw	a0,12(sp)
    2282:	47b2                	lw	a5,12(sp)
    2284:	238a                	lhu	a0,0(a5)
    2286:	0141                	addi	sp,sp,16
    2288:	8082                	ret

0000228a <NVIC_PriorityGroupConfig>:
    228a:	86a1ae23          	sw	a0,-1924(gp) # 2000031c <NVIC_Priority_Group>
    228e:	8082                	ret

00002290 <NVIC_Init>:
    2290:	87c1a703          	lw	a4,-1924(gp) # 2000031c <NVIC_Priority_Group>
    2294:	4785                	li	a5,1
    2296:	2114                	lbu	a3,0(a0)
    2298:	02f71063          	bne	a4,a5,22b8 <NVIC_Init+0x28>
    229c:	311c                	lbu	a5,1(a0)
    229e:	02e79c63          	bne	a5,a4,22d6 <NVIC_Init+0x46>
    22a2:	213c                	lbu	a5,2(a0)
    22a4:	0796                	slli	a5,a5,0x5
    22a6:	f807e793          	ori	a5,a5,-128
    22aa:	e000e737          	lui	a4,0xe000e
    22ae:	0ff7f793          	andi	a5,a5,255
    22b2:	9736                	add	a4,a4,a3
    22b4:	40f70023          	sb	a5,1024(a4) # e000e400 <_eusrstack+0xc0009400>
    22b8:	4705                	li	a4,1
    22ba:	0056d793          	srli	a5,a3,0x5
    22be:	00d71733          	sll	a4,a4,a3
    22c2:	4154                	lw	a3,4(a0)
    22c4:	ce89                	beqz	a3,22de <NVIC_Init+0x4e>
    22c6:	04078793          	addi	a5,a5,64
    22ca:	078a                	slli	a5,a5,0x2
    22cc:	e000e6b7          	lui	a3,0xe000e
    22d0:	97b6                	add	a5,a5,a3
    22d2:	c398                	sw	a4,0(a5)
    22d4:	8082                	ret
    22d6:	f3ed                	bnez	a5,22b8 <NVIC_Init+0x28>
    22d8:	213c                	lbu	a5,2(a0)
    22da:	0796                	slli	a5,a5,0x5
    22dc:	b7f9                	j	22aa <NVIC_Init+0x1a>
    22de:	06078793          	addi	a5,a5,96
    22e2:	b7e5                	j	22ca <NVIC_Init+0x3a>

000022e4 <PWR_BackupAccessCmd>:
    22e4:	40007737          	lui	a4,0x40007
    22e8:	431c                	lw	a5,0(a4)
    22ea:	c509                	beqz	a0,22f4 <PWR_BackupAccessCmd+0x10>
    22ec:	1007e793          	ori	a5,a5,256
    22f0:	c31c                	sw	a5,0(a4)
    22f2:	8082                	ret
    22f4:	eff7f793          	andi	a5,a5,-257
    22f8:	bfe5                	j	22f0 <PWR_BackupAccessCmd+0xc>

000022fa <PWR_WakeUpPinCmd>:
    22fa:	40007737          	lui	a4,0x40007
    22fe:	435c                	lw	a5,4(a4)
    2300:	c509                	beqz	a0,230a <PWR_WakeUpPinCmd+0x10>
    2302:	1007e793          	ori	a5,a5,256
    2306:	c35c                	sw	a5,4(a4)
    2308:	8082                	ret
    230a:	eff7f793          	andi	a5,a5,-257
    230e:	bfe5                	j	2306 <PWR_WakeUpPinCmd+0xc>

00002310 <RCC_USBCLKConfig>:
    2310:	400217b7          	lui	a5,0x40021
    2314:	43d8                	lw	a4,4(a5)
    2316:	ff4006b7          	lui	a3,0xff400
    231a:	16fd                	addi	a3,a3,-1
    231c:	8f75                	and	a4,a4,a3
    231e:	c3d8                	sw	a4,4(a5)
    2320:	43d8                	lw	a4,4(a5)
    2322:	055a                	slli	a0,a0,0x16
    2324:	8d59                	or	a0,a0,a4
    2326:	c3c8                	sw	a0,4(a5)
    2328:	8082                	ret

0000232a <RCC_LSEConfig>:
    232a:	400217b7          	lui	a5,0x40021
    232e:	02078023          	sb	zero,32(a5) # 40021020 <_eusrstack+0x2001c020>
    2332:	02078023          	sb	zero,32(a5)
    2336:	4705                	li	a4,1
    2338:	00e50663          	beq	a0,a4,2344 <RCC_LSEConfig+0x1a>
    233c:	4711                	li	a4,4
    233e:	00e50663          	beq	a0,a4,234a <RCC_LSEConfig+0x20>
    2342:	8082                	ret
    2344:	02a78023          	sb	a0,32(a5)
    2348:	8082                	ret
    234a:	4715                	li	a4,5
    234c:	02e78023          	sb	a4,32(a5)
    2350:	8082                	ret

00002352 <RCC_RTCCLKConfig>:
    2352:	40021737          	lui	a4,0x40021
    2356:	531c                	lw	a5,32(a4)
    2358:	8d5d                	or	a0,a0,a5
    235a:	d308                	sw	a0,32(a4)
    235c:	8082                	ret

0000235e <RCC_RTCCLKCmd>:
    235e:	c901                	beqz	a0,236e <RCC_RTCCLKCmd+0x10>
    2360:	40021737          	lui	a4,0x40021
    2364:	531c                	lw	a5,32(a4)
    2366:	66a1                	lui	a3,0x8
    2368:	8fd5                	or	a5,a5,a3
    236a:	d31c                	sw	a5,32(a4)
    236c:	8082                	ret
    236e:	400216b7          	lui	a3,0x40021
    2372:	529c                	lw	a5,32(a3)
    2374:	7761                	lui	a4,0xffff8
    2376:	177d                	addi	a4,a4,-1
    2378:	8ff9                	and	a5,a5,a4
    237a:	d29c                	sw	a5,32(a3)
    237c:	8082                	ret

0000237e <RCC_APB2PeriphClockCmd>:
    237e:	c599                	beqz	a1,238c <RCC_APB2PeriphClockCmd+0xe>
    2380:	40021737          	lui	a4,0x40021
    2384:	4f1c                	lw	a5,24(a4)
    2386:	8d5d                	or	a0,a0,a5
    2388:	cf08                	sw	a0,24(a4)
    238a:	8082                	ret
    238c:	400217b7          	lui	a5,0x40021
    2390:	4f98                	lw	a4,24(a5)
    2392:	fff54513          	not	a0,a0
    2396:	8d79                	and	a0,a0,a4
    2398:	cf88                	sw	a0,24(a5)
    239a:	8082                	ret

0000239c <RCC_APB1PeriphClockCmd>:
    239c:	c599                	beqz	a1,23aa <RCC_APB1PeriphClockCmd+0xe>
    239e:	40021737          	lui	a4,0x40021
    23a2:	4f5c                	lw	a5,28(a4)
    23a4:	8d5d                	or	a0,a0,a5
    23a6:	cf48                	sw	a0,28(a4)
    23a8:	8082                	ret
    23aa:	400217b7          	lui	a5,0x40021
    23ae:	4fd8                	lw	a4,28(a5)
    23b0:	fff54513          	not	a0,a0
    23b4:	8d79                	and	a0,a0,a4
    23b6:	cfc8                	sw	a0,28(a5)
    23b8:	8082                	ret

000023ba <RCC_BackupResetCmd>:
    23ba:	c901                	beqz	a0,23ca <RCC_BackupResetCmd+0x10>
    23bc:	40021737          	lui	a4,0x40021
    23c0:	531c                	lw	a5,32(a4)
    23c2:	66c1                	lui	a3,0x10
    23c4:	8fd5                	or	a5,a5,a3
    23c6:	d31c                	sw	a5,32(a4)
    23c8:	8082                	ret
    23ca:	400216b7          	lui	a3,0x40021
    23ce:	529c                	lw	a5,32(a3)
    23d0:	7741                	lui	a4,0xffff0
    23d2:	177d                	addi	a4,a4,-1
    23d4:	8ff9                	and	a5,a5,a4
    23d6:	d29c                	sw	a5,32(a3)
    23d8:	8082                	ret

000023da <RCC_GetFlagStatus>:
    23da:	00555793          	srli	a5,a0,0x5
    23de:	4705                	li	a4,1
    23e0:	00e79963          	bne	a5,a4,23f2 <RCC_GetFlagStatus+0x18>
    23e4:	400217b7          	lui	a5,0x40021
    23e8:	439c                	lw	a5,0(a5)
    23ea:	00a7d533          	srl	a0,a5,a0
    23ee:	8905                	andi	a0,a0,1
    23f0:	8082                	ret
    23f2:	4709                	li	a4,2
    23f4:	00e79663          	bne	a5,a4,2400 <RCC_GetFlagStatus+0x26>
    23f8:	400217b7          	lui	a5,0x40021
    23fc:	539c                	lw	a5,32(a5)
    23fe:	b7f5                	j	23ea <RCC_GetFlagStatus+0x10>
    2400:	400217b7          	lui	a5,0x40021
    2404:	53dc                	lw	a5,36(a5)
    2406:	b7d5                	j	23ea <RCC_GetFlagStatus+0x10>

00002408 <RTC_ITConfig>:
    2408:	400037b7          	lui	a5,0x40003
    240c:	8007d703          	lhu	a4,-2048(a5) # 40002800 <_eusrstack+0x1fffd800>
    2410:	c589                	beqz	a1,241a <RTC_ITConfig+0x12>
    2412:	8d59                	or	a0,a0,a4
    2414:	80a79023          	sh	a0,-2048(a5)
    2418:	8082                	ret
    241a:	fff54513          	not	a0,a0
    241e:	8d79                	and	a0,a0,a4
    2420:	bfd5                	j	2414 <RTC_ITConfig+0xc>

00002422 <RTC_EnterConfigMode>:
    2422:	400037b7          	lui	a5,0x40003
    2426:	8047d703          	lhu	a4,-2044(a5) # 40002804 <_eusrstack+0x1fffd804>
    242a:	01076713          	ori	a4,a4,16
    242e:	80e79223          	sh	a4,-2044(a5)
    2432:	8082                	ret

00002434 <RTC_ExitConfigMode>:
    2434:	40003737          	lui	a4,0x40003
    2438:	80475783          	lhu	a5,-2044(a4) # 40002804 <_eusrstack+0x1fffd804>
    243c:	07c2                	slli	a5,a5,0x10
    243e:	83c1                	srli	a5,a5,0x10
    2440:	9bbd                	andi	a5,a5,-17
    2442:	07c2                	slli	a5,a5,0x10
    2444:	83c1                	srli	a5,a5,0x10
    2446:	80f71223          	sh	a5,-2044(a4)
    244a:	8082                	ret

0000244c <RTC_GetCounter>:
    244c:	40003637          	lui	a2,0x40003
    2450:	81865683          	lhu	a3,-2024(a2) # 40002818 <_eusrstack+0x1fffd818>
    2454:	81865703          	lhu	a4,-2024(a2)
    2458:	0742                	slli	a4,a4,0x10
    245a:	8341                	srli	a4,a4,0x10
    245c:	fed71ae3          	bne	a4,a3,2450 <RTC_GetCounter+0x4>
    2460:	40003637          	lui	a2,0x40003
    2464:	81c65683          	lhu	a3,-2020(a2) # 4000281c <_eusrstack+0x1fffd81c>
    2468:	81c65783          	lhu	a5,-2020(a2)
    246c:	07c2                	slli	a5,a5,0x10
    246e:	83c1                	srli	a5,a5,0x10
    2470:	fed79ae3          	bne	a5,a3,2464 <RTC_GetCounter+0x18>
    2474:	400035b7          	lui	a1,0x40003
    2478:	8185d603          	lhu	a2,-2024(a1) # 40002818 <_eusrstack+0x1fffd818>
    247c:	8185d503          	lhu	a0,-2024(a1)
    2480:	0542                	slli	a0,a0,0x10
    2482:	8141                	srli	a0,a0,0x10
    2484:	fec51ae3          	bne	a0,a2,2478 <RTC_GetCounter+0x2c>
    2488:	00a70c63          	beq	a4,a0,24a0 <RTC_GetCounter+0x54>
    248c:	400036b7          	lui	a3,0x40003
    2490:	81c6d703          	lhu	a4,-2020(a3) # 4000281c <_eusrstack+0x1fffd81c>
    2494:	81c6d783          	lhu	a5,-2020(a3)
    2498:	07c2                	slli	a5,a5,0x10
    249a:	83c1                	srli	a5,a5,0x10
    249c:	fee79ae3          	bne	a5,a4,2490 <RTC_GetCounter+0x44>
    24a0:	0542                	slli	a0,a0,0x10
    24a2:	8d5d                	or	a0,a0,a5
    24a4:	8082                	ret

000024a6 <RTC_SetCounter>:
    24a6:	c8bfd2ef          	jal	t0,130 <__riscv_save_0>
    24aa:	1141                	addi	sp,sp,-16
    24ac:	c62a                	sw	a0,12(sp)
    24ae:	3f95                	jal	2422 <RTC_EnterConfigMode>
    24b0:	4532                	lw	a0,12(sp)
    24b2:	400037b7          	lui	a5,0x40003
    24b6:	01055713          	srli	a4,a0,0x10
    24ba:	0542                	slli	a0,a0,0x10
    24bc:	80e79c23          	sh	a4,-2024(a5) # 40002818 <_eusrstack+0x1fffd818>
    24c0:	8141                	srli	a0,a0,0x10
    24c2:	80a79e23          	sh	a0,-2020(a5)
    24c6:	37bd                	jal	2434 <RTC_ExitConfigMode>
    24c8:	0141                	addi	sp,sp,16
    24ca:	c8bfd06f          	j	154 <__riscv_restore_0>

000024ce <RTC_SetPrescaler>:
    24ce:	c63fd2ef          	jal	t0,130 <__riscv_save_0>
    24d2:	1141                	addi	sp,sp,-16
    24d4:	c62a                	sw	a0,12(sp)
    24d6:	37b1                	jal	2422 <RTC_EnterConfigMode>
    24d8:	4532                	lw	a0,12(sp)
    24da:	400037b7          	lui	a5,0x40003
    24de:	01055713          	srli	a4,a0,0x10
    24e2:	8b3d                	andi	a4,a4,15
    24e4:	0542                	slli	a0,a0,0x10
    24e6:	80e79423          	sh	a4,-2040(a5) # 40002808 <_eusrstack+0x1fffd808>
    24ea:	8141                	srli	a0,a0,0x10
    24ec:	80a79623          	sh	a0,-2036(a5)
    24f0:	3791                	jal	2434 <RTC_ExitConfigMode>
    24f2:	0141                	addi	sp,sp,16
    24f4:	c61fd06f          	j	154 <__riscv_restore_0>

000024f8 <RTC_WaitForLastTask>:
    24f8:	40003737          	lui	a4,0x40003
    24fc:	80475783          	lhu	a5,-2044(a4) # 40002804 <_eusrstack+0x1fffd804>
    2500:	0207f793          	andi	a5,a5,32
    2504:	dfe5                	beqz	a5,24fc <RTC_WaitForLastTask+0x4>
    2506:	8082                	ret

00002508 <RTC_WaitForSynchro>:
    2508:	40003737          	lui	a4,0x40003
    250c:	80475783          	lhu	a5,-2044(a4) # 40002804 <_eusrstack+0x1fffd804>
    2510:	07c2                	slli	a5,a5,0x10
    2512:	83c1                	srli	a5,a5,0x10
    2514:	9bdd                	andi	a5,a5,-9
    2516:	07c2                	slli	a5,a5,0x10
    2518:	83c1                	srli	a5,a5,0x10
    251a:	80f71223          	sh	a5,-2044(a4)
    251e:	40003737          	lui	a4,0x40003
    2522:	80475783          	lhu	a5,-2044(a4) # 40002804 <_eusrstack+0x1fffd804>
    2526:	8ba1                	andi	a5,a5,8
    2528:	dfed                	beqz	a5,2522 <RTC_WaitForSynchro+0x1a>
    252a:	8082                	ret

0000252c <RTC_ClearFlag>:
    252c:	400037b7          	lui	a5,0x40003
    2530:	8047d703          	lhu	a4,-2044(a5) # 40002804 <_eusrstack+0x1fffd804>
    2534:	fff54513          	not	a0,a0
    2538:	8d79                	and	a0,a0,a4
    253a:	80a79223          	sh	a0,-2044(a5)
    253e:	8082                	ret

00002540 <RTC_GetITStatus>:
    2540:	40003737          	lui	a4,0x40003
    2544:	80475783          	lhu	a5,-2044(a4) # 40002804 <_eusrstack+0x1fffd804>
    2548:	80075703          	lhu	a4,-2048(a4)
    254c:	07c2                	slli	a5,a5,0x10
    254e:	8f69                	and	a4,a4,a0
    2550:	83c1                	srli	a5,a5,0x10
    2552:	c709                	beqz	a4,255c <RTC_GetITStatus+0x1c>
    2554:	8d7d                	and	a0,a0,a5
    2556:	00a03533          	snez	a0,a0
    255a:	8082                	ret
    255c:	4501                	li	a0,0
    255e:	8082                	ret

00002560 <RTC_ClearITPendingBit>:
    2560:	bd1fd2ef          	jal	t0,130 <__riscv_save_0>
    2564:	37e1                	jal	252c <RTC_ClearFlag>
    2566:	beffd06f          	j	154 <__riscv_restore_0>

0000256a <Delay_Init>:
    256a:	8241a783          	lw	a5,-2012(gp) # 200002c4 <SystemCoreClock>
    256e:	007a1737          	lui	a4,0x7a1
    2572:	20070713          	addi	a4,a4,512 # 7a1200 <_data_lma+0x79d278>
    2576:	02e7d7b3          	divu	a5,a5,a4
    257a:	0ff7f793          	andi	a5,a5,255
    257e:	88f18123          	sb	a5,-1918(gp) # 20000322 <p_us>
    2582:	3e800713          	li	a4,1000
    2586:	02e787b3          	mul	a5,a5,a4
    258a:	88f19023          	sh	a5,-1920(gp) # 20000320 <p_ms>
    258e:	8082                	ret

00002590 <Delay_Ms>:
    2590:	e000f7b7          	lui	a5,0xe000f
    2594:	43d8                	lw	a4,4(a5)
    2596:	4681                	li	a3,0
    2598:	9b79                	andi	a4,a4,-2
    259a:	c3d8                	sw	a4,4(a5)
    259c:	8801d703          	lhu	a4,-1920(gp) # 20000320 <p_ms>
    25a0:	02a70633          	mul	a2,a4,a0
    25a4:	cb90                	sw	a2,16(a5)
    25a6:	cbd4                	sw	a3,20(a5)
    25a8:	4398                	lw	a4,0(a5)
    25aa:	01076713          	ori	a4,a4,16
    25ae:	c398                	sw	a4,0(a5)
    25b0:	4398                	lw	a4,0(a5)
    25b2:	02176713          	ori	a4,a4,33
    25b6:	c398                	sw	a4,0(a5)
    25b8:	43d8                	lw	a4,4(a5)
    25ba:	8b05                	andi	a4,a4,1
    25bc:	df75                	beqz	a4,25b8 <Delay_Ms+0x28>
    25be:	4398                	lw	a4,0(a5)
    25c0:	9b79                	andi	a4,a4,-2
    25c2:	c398                	sw	a4,0(a5)
    25c4:	8082                	ret

000025c6 <_sbrk>:
    25c6:	82818713          	addi	a4,gp,-2008 # 200002c8 <curbrk.4673>
    25ca:	431c                	lw	a5,0(a4)
    25cc:	a5818693          	addi	a3,gp,-1448 # 200004f8 <_ebss>
    25d0:	953e                	add	a0,a0,a5
    25d2:	00d56b63          	bltu	a0,a3,25e8 <_sbrk+0x22>
    25d6:	200056b7          	lui	a3,0x20005
    25da:	80068693          	addi	a3,a3,-2048 # 20004800 <_heap_end>
    25de:	00a6e563          	bltu	a3,a0,25e8 <_sbrk+0x22>
    25e2:	c308                	sw	a0,0(a4)
    25e4:	853e                	mv	a0,a5
    25e6:	8082                	ret
    25e8:	57fd                	li	a5,-1
    25ea:	bfed                	j	25e4 <_sbrk+0x1e>

000025ec <siprintf>:
    25ec:	7135                	addi	sp,sp,-160
    25ee:	cb3e                	sw	a5,148(sp)
    25f0:	800007b7          	lui	a5,0x80000
    25f4:	fff7c793          	not	a5,a5
    25f8:	ce3e                	sw	a5,28(sp)
    25fa:	c83e                	sw	a5,16(sp)
    25fc:	77c1                	lui	a5,0xffff0
    25fe:	20878793          	addi	a5,a5,520 # ffff0208 <_eusrstack+0xdffeb208>
    2602:	c532                	sw	a2,136(sp)
    2604:	c736                	sw	a3,140(sp)
    2606:	c93a                	sw	a4,144(sp)
    2608:	cd42                	sw	a6,152(sp)
    260a:	cf46                	sw	a7,156(sp)
    260c:	ca3e                	sw	a5,20(sp)
    260e:	82c18793          	addi	a5,gp,-2004 # 200002cc <_impure_ptr>
    2612:	c42a                	sw	a0,8(sp)
    2614:	cc2a                	sw	a0,24(sp)
    2616:	4388                	lw	a0,0(a5)
    2618:	0134                	addi	a3,sp,136
    261a:	862e                	mv	a2,a1
    261c:	002c                	addi	a1,sp,8
    261e:	de86                	sw	ra,124(sp)
    2620:	c236                	sw	a3,4(sp)
    2622:	2aa1                	jal	277a <_svfiprintf_r>
    2624:	47a2                	lw	a5,8(sp)
    2626:	00078023          	sb	zero,0(a5)
    262a:	50f6                	lw	ra,124(sp)
    262c:	610d                	addi	sp,sp,160
    262e:	8082                	ret

00002630 <siscanf>:
    2630:	7171                	addi	sp,sp,-176
    2632:	d33e                	sw	a5,164(sp)
    2634:	20400793          	li	a5,516
    2638:	c706                	sw	ra,140(sp)
    263a:	c62e                	sw	a1,12(sp)
    263c:	cd32                	sw	a2,152(sp)
    263e:	cf36                	sw	a3,156(sp)
    2640:	d13a                	sw	a4,160(sp)
    2642:	d542                	sw	a6,168(sp)
    2644:	d746                	sw	a7,172(sp)
    2646:	02f11223          	sh	a5,36(sp)
    264a:	cc2a                	sw	a0,24(sp)
    264c:	d42a                	sw	a0,40(sp)
    264e:	281d                	jal	2684 <strlen>
    2650:	00000797          	auipc	a5,0x0
    2654:	03078793          	addi	a5,a5,48 # 2680 <__seofread>
    2658:	de3e                	sw	a5,60(sp)
    265a:	57fd                	li	a5,-1
    265c:	45b2                	lw	a1,12(sp)
    265e:	02f11323          	sh	a5,38(sp)
    2662:	82c18793          	addi	a5,gp,-2004 # 200002cc <_impure_ptr>
    2666:	ce2a                	sw	a0,28(sp)
    2668:	d62a                	sw	a0,44(sp)
    266a:	4388                	lw	a0,0(a5)
    266c:	0934                	addi	a3,sp,152
    266e:	862e                	mv	a2,a1
    2670:	082c                	addi	a1,sp,24
    2672:	c682                	sw	zero,76(sp)
    2674:	d082                	sw	zero,96(sp)
    2676:	ca36                	sw	a3,20(sp)
    2678:	2199                	jal	2abe <__ssvfiscanf_r>
    267a:	40ba                	lw	ra,140(sp)
    267c:	614d                	addi	sp,sp,176
    267e:	8082                	ret

00002680 <__seofread>:
    2680:	4501                	li	a0,0
    2682:	8082                	ret

00002684 <strlen>:
    2684:	87aa                	mv	a5,a0
    2686:	0785                	addi	a5,a5,1
    2688:	fff7c703          	lbu	a4,-1(a5)
    268c:	ff6d                	bnez	a4,2686 <strlen+0x2>
    268e:	40a78533          	sub	a0,a5,a0
    2692:	157d                	addi	a0,a0,-1
    2694:	8082                	ret

00002696 <__ssputs_r>:
    2696:	1101                	addi	sp,sp,-32
    2698:	c84a                	sw	s2,16(sp)
    269a:	0085a903          	lw	s2,8(a1)
    269e:	cc22                	sw	s0,24(sp)
    26a0:	c452                	sw	s4,8(sp)
    26a2:	c05a                	sw	s6,0(sp)
    26a4:	ce06                	sw	ra,28(sp)
    26a6:	ca26                	sw	s1,20(sp)
    26a8:	c64e                	sw	s3,12(sp)
    26aa:	c256                	sw	s5,4(sp)
    26ac:	842e                	mv	s0,a1
    26ae:	8b32                	mv	s6,a2
    26b0:	8a36                	mv	s4,a3
    26b2:	0926e963          	bltu	a3,s2,2744 <__ssputs_r+0xae>
    26b6:	25de                	lhu	a5,12(a1)
    26b8:	4807f713          	andi	a4,a5,1152
    26bc:	c351                	beqz	a4,2740 <__ssputs_r+0xaa>
    26be:	4004                	lw	s1,0(s0)
    26c0:	498c                	lw	a1,16(a1)
    26c2:	4858                	lw	a4,20(s0)
    26c4:	8aaa                	mv	s5,a0
    26c6:	40b489b3          	sub	s3,s1,a1
    26ca:	448d                	li	s1,3
    26cc:	02e484b3          	mul	s1,s1,a4
    26d0:	4709                	li	a4,2
    26d2:	02e4c4b3          	div	s1,s1,a4
    26d6:	00168713          	addi	a4,a3,1
    26da:	974e                	add	a4,a4,s3
    26dc:	00e4f363          	bgeu	s1,a4,26e2 <__ssputs_r+0x4c>
    26e0:	84ba                	mv	s1,a4
    26e2:	4007f793          	andi	a5,a5,1024
    26e6:	cfbd                	beqz	a5,2764 <__ssputs_r+0xce>
    26e8:	85a6                	mv	a1,s1
    26ea:	8556                	mv	a0,s5
    26ec:	3f4010ef          	jal	ra,3ae0 <_malloc_r>
    26f0:	892a                	mv	s2,a0
    26f2:	e11d                	bnez	a0,2718 <__ssputs_r+0x82>
    26f4:	47b1                	li	a5,12
    26f6:	00faa023          	sw	a5,0(s5)
    26fa:	245e                	lhu	a5,12(s0)
    26fc:	557d                	li	a0,-1
    26fe:	0407e793          	ori	a5,a5,64
    2702:	a45e                	sh	a5,12(s0)
    2704:	40f2                	lw	ra,28(sp)
    2706:	4462                	lw	s0,24(sp)
    2708:	44d2                	lw	s1,20(sp)
    270a:	4942                	lw	s2,16(sp)
    270c:	49b2                	lw	s3,12(sp)
    270e:	4a22                	lw	s4,8(sp)
    2710:	4a92                	lw	s5,4(sp)
    2712:	4b02                	lw	s6,0(sp)
    2714:	6105                	addi	sp,sp,32
    2716:	8082                	ret
    2718:	480c                	lw	a1,16(s0)
    271a:	864e                	mv	a2,s3
    271c:	228010ef          	jal	ra,3944 <memcpy>
    2720:	245e                	lhu	a5,12(s0)
    2722:	b7f7f793          	andi	a5,a5,-1153
    2726:	0807e793          	ori	a5,a5,128
    272a:	a45e                	sh	a5,12(s0)
    272c:	01242823          	sw	s2,16(s0)
    2730:	c844                	sw	s1,20(s0)
    2732:	994e                	add	s2,s2,s3
    2734:	413484b3          	sub	s1,s1,s3
    2738:	01242023          	sw	s2,0(s0)
    273c:	c404                	sw	s1,8(s0)
    273e:	8952                	mv	s2,s4
    2740:	012a7363          	bgeu	s4,s2,2746 <__ssputs_r+0xb0>
    2744:	8952                	mv	s2,s4
    2746:	4008                	lw	a0,0(s0)
    2748:	864a                	mv	a2,s2
    274a:	85da                	mv	a1,s6
    274c:	2aa010ef          	jal	ra,39f6 <memmove>
    2750:	441c                	lw	a5,8(s0)
    2752:	4501                	li	a0,0
    2754:	412787b3          	sub	a5,a5,s2
    2758:	c41c                	sw	a5,8(s0)
    275a:	401c                	lw	a5,0(s0)
    275c:	993e                	add	s2,s2,a5
    275e:	01242023          	sw	s2,0(s0)
    2762:	b74d                	j	2704 <__ssputs_r+0x6e>
    2764:	8626                	mv	a2,s1
    2766:	8556                	mv	a0,s5
    2768:	446010ef          	jal	ra,3bae <_realloc_r>
    276c:	892a                	mv	s2,a0
    276e:	fd5d                	bnez	a0,272c <__ssputs_r+0x96>
    2770:	480c                	lw	a1,16(s0)
    2772:	8556                	mv	a0,s5
    2774:	2c8010ef          	jal	ra,3a3c <_free_r>
    2778:	bfb5                	j	26f4 <__ssputs_r+0x5e>

0000277a <_svfiprintf_r>:
    277a:	25de                	lhu	a5,12(a1)
    277c:	7171                	addi	sp,sp,-176
    277e:	d326                	sw	s1,164(sp)
    2780:	d14a                	sw	s2,160(sp)
    2782:	cf4e                	sw	s3,156(sp)
    2784:	d706                	sw	ra,172(sp)
    2786:	d522                	sw	s0,168(sp)
    2788:	cd52                	sw	s4,152(sp)
    278a:	cb56                	sw	s5,148(sp)
    278c:	c95a                	sw	s6,144(sp)
    278e:	c75e                	sw	s7,140(sp)
    2790:	c562                	sw	s8,136(sp)
    2792:	c366                	sw	s9,132(sp)
    2794:	0807f793          	andi	a5,a5,128
    2798:	89aa                	mv	s3,a0
    279a:	892e                	mv	s2,a1
    279c:	84b2                	mv	s1,a2
    279e:	c3b9                	beqz	a5,27e4 <_svfiprintf_r+0x6a>
    27a0:	499c                	lw	a5,16(a1)
    27a2:	e3a9                	bnez	a5,27e4 <_svfiprintf_r+0x6a>
    27a4:	04000593          	li	a1,64
    27a8:	c636                	sw	a3,12(sp)
    27aa:	336010ef          	jal	ra,3ae0 <_malloc_r>
    27ae:	00a92023          	sw	a0,0(s2)
    27b2:	00a92823          	sw	a0,16(s2)
    27b6:	46b2                	lw	a3,12(sp)
    27b8:	e115                	bnez	a0,27dc <_svfiprintf_r+0x62>
    27ba:	47b1                	li	a5,12
    27bc:	00f9a023          	sw	a5,0(s3)
    27c0:	557d                	li	a0,-1
    27c2:	50ba                	lw	ra,172(sp)
    27c4:	542a                	lw	s0,168(sp)
    27c6:	549a                	lw	s1,164(sp)
    27c8:	590a                	lw	s2,160(sp)
    27ca:	49fa                	lw	s3,156(sp)
    27cc:	4a6a                	lw	s4,152(sp)
    27ce:	4ada                	lw	s5,148(sp)
    27d0:	4b4a                	lw	s6,144(sp)
    27d2:	4bba                	lw	s7,140(sp)
    27d4:	4c2a                	lw	s8,136(sp)
    27d6:	4c9a                	lw	s9,132(sp)
    27d8:	614d                	addi	sp,sp,176
    27da:	8082                	ret
    27dc:	04000793          	li	a5,64
    27e0:	00f92a23          	sw	a5,20(s2)
    27e4:	02000793          	li	a5,32
    27e8:	02f10ca3          	sb	a5,57(sp)
    27ec:	03000793          	li	a5,48
    27f0:	da02                	sw	zero,52(sp)
    27f2:	02f10d23          	sb	a5,58(sp)
    27f6:	ce36                	sw	a3,28(sp)
    27f8:	02500b93          	li	s7,37
    27fc:	00001a97          	auipc	s5,0x1
    2800:	5bca8a93          	addi	s5,s5,1468 # 3db8 <table_week+0xc>
    2804:	4c05                	li	s8,1
    2806:	4b29                	li	s6,10
    2808:	8426                	mv	s0,s1
    280a:	201c                	lbu	a5,0(s0)
    280c:	c399                	beqz	a5,2812 <_svfiprintf_r+0x98>
    280e:	09779963          	bne	a5,s7,28a0 <_svfiprintf_r+0x126>
    2812:	40940cb3          	sub	s9,s0,s1
    2816:	000c8e63          	beqz	s9,2832 <_svfiprintf_r+0xb8>
    281a:	86e6                	mv	a3,s9
    281c:	8626                	mv	a2,s1
    281e:	85ca                	mv	a1,s2
    2820:	854e                	mv	a0,s3
    2822:	e75ff0ef          	jal	ra,2696 <__ssputs_r>
    2826:	57fd                	li	a5,-1
    2828:	18f50b63          	beq	a0,a5,29be <_svfiprintf_r+0x244>
    282c:	56d2                	lw	a3,52(sp)
    282e:	96e6                	add	a3,a3,s9
    2830:	da36                	sw	a3,52(sp)
    2832:	201c                	lbu	a5,0(s0)
    2834:	18078563          	beqz	a5,29be <_svfiprintf_r+0x244>
    2838:	57fd                	li	a5,-1
    283a:	00140493          	addi	s1,s0,1
    283e:	d002                	sw	zero,32(sp)
    2840:	d602                	sw	zero,44(sp)
    2842:	d23e                	sw	a5,36(sp)
    2844:	d402                	sw	zero,40(sp)
    2846:	060101a3          	sb	zero,99(sp)
    284a:	dc82                	sw	zero,120(sp)
    284c:	208c                	lbu	a1,0(s1)
    284e:	4615                	li	a2,5
    2850:	8556                	mv	a0,s5
    2852:	0da010ef          	jal	ra,392c <memchr>
    2856:	00148413          	addi	s0,s1,1
    285a:	5782                	lw	a5,32(sp)
    285c:	e521                	bnez	a0,28a4 <_svfiprintf_r+0x12a>
    285e:	0107f713          	andi	a4,a5,16
    2862:	c709                	beqz	a4,286c <_svfiprintf_r+0xf2>
    2864:	02000713          	li	a4,32
    2868:	06e101a3          	sb	a4,99(sp)
    286c:	0087f713          	andi	a4,a5,8
    2870:	c709                	beqz	a4,287a <_svfiprintf_r+0x100>
    2872:	02b00713          	li	a4,43
    2876:	06e101a3          	sb	a4,99(sp)
    287a:	2094                	lbu	a3,0(s1)
    287c:	02a00713          	li	a4,42
    2880:	02e68a63          	beq	a3,a4,28b4 <_svfiprintf_r+0x13a>
    2884:	57b2                	lw	a5,44(sp)
    2886:	8426                	mv	s0,s1
    2888:	4681                	li	a3,0
    288a:	4625                	li	a2,9
    288c:	2018                	lbu	a4,0(s0)
    288e:	00140593          	addi	a1,s0,1
    2892:	fd070713          	addi	a4,a4,-48
    2896:	06e67263          	bgeu	a2,a4,28fa <_svfiprintf_r+0x180>
    289a:	c68d                	beqz	a3,28c4 <_svfiprintf_r+0x14a>
    289c:	d63e                	sw	a5,44(sp)
    289e:	a01d                	j	28c4 <_svfiprintf_r+0x14a>
    28a0:	0405                	addi	s0,s0,1
    28a2:	b7a5                	j	280a <_svfiprintf_r+0x90>
    28a4:	41550533          	sub	a0,a0,s5
    28a8:	00ac1533          	sll	a0,s8,a0
    28ac:	8fc9                	or	a5,a5,a0
    28ae:	d03e                	sw	a5,32(sp)
    28b0:	84a2                	mv	s1,s0
    28b2:	bf69                	j	284c <_svfiprintf_r+0xd2>
    28b4:	4772                	lw	a4,28(sp)
    28b6:	00470693          	addi	a3,a4,4
    28ba:	4318                	lw	a4,0(a4)
    28bc:	ce36                	sw	a3,28(sp)
    28be:	02074763          	bltz	a4,28ec <_svfiprintf_r+0x172>
    28c2:	d63a                	sw	a4,44(sp)
    28c4:	2018                	lbu	a4,0(s0)
    28c6:	02e00793          	li	a5,46
    28ca:	04f71d63          	bne	a4,a5,2924 <_svfiprintf_r+0x1aa>
    28ce:	3018                	lbu	a4,1(s0)
    28d0:	02a00793          	li	a5,42
    28d4:	02f71b63          	bne	a4,a5,290a <_svfiprintf_r+0x190>
    28d8:	47f2                	lw	a5,28(sp)
    28da:	0409                	addi	s0,s0,2
    28dc:	00478713          	addi	a4,a5,4
    28e0:	439c                	lw	a5,0(a5)
    28e2:	ce3a                	sw	a4,28(sp)
    28e4:	0207c163          	bltz	a5,2906 <_svfiprintf_r+0x18c>
    28e8:	d23e                	sw	a5,36(sp)
    28ea:	a82d                	j	2924 <_svfiprintf_r+0x1aa>
    28ec:	40e00733          	neg	a4,a4
    28f0:	0027e793          	ori	a5,a5,2
    28f4:	d63a                	sw	a4,44(sp)
    28f6:	d03e                	sw	a5,32(sp)
    28f8:	b7f1                	j	28c4 <_svfiprintf_r+0x14a>
    28fa:	036787b3          	mul	a5,a5,s6
    28fe:	4685                	li	a3,1
    2900:	842e                	mv	s0,a1
    2902:	97ba                	add	a5,a5,a4
    2904:	b761                	j	288c <_svfiprintf_r+0x112>
    2906:	57fd                	li	a5,-1
    2908:	b7c5                	j	28e8 <_svfiprintf_r+0x16e>
    290a:	0405                	addi	s0,s0,1
    290c:	d202                	sw	zero,36(sp)
    290e:	4681                	li	a3,0
    2910:	4781                	li	a5,0
    2912:	4625                	li	a2,9
    2914:	2018                	lbu	a4,0(s0)
    2916:	00140593          	addi	a1,s0,1
    291a:	fd070713          	addi	a4,a4,-48
    291e:	06e67663          	bgeu	a2,a4,298a <_svfiprintf_r+0x210>
    2922:	f2f9                	bnez	a3,28e8 <_svfiprintf_r+0x16e>
    2924:	200c                	lbu	a1,0(s0)
    2926:	460d                	li	a2,3
    2928:	00001517          	auipc	a0,0x1
    292c:	49850513          	addi	a0,a0,1176 # 3dc0 <table_week+0x14>
    2930:	7fd000ef          	jal	ra,392c <memchr>
    2934:	cd11                	beqz	a0,2950 <_svfiprintf_r+0x1d6>
    2936:	00001797          	auipc	a5,0x1
    293a:	48a78793          	addi	a5,a5,1162 # 3dc0 <table_week+0x14>
    293e:	8d1d                	sub	a0,a0,a5
    2940:	04000793          	li	a5,64
    2944:	00a797b3          	sll	a5,a5,a0
    2948:	5502                	lw	a0,32(sp)
    294a:	0405                	addi	s0,s0,1
    294c:	8d5d                	or	a0,a0,a5
    294e:	d02a                	sw	a0,32(sp)
    2950:	200c                	lbu	a1,0(s0)
    2952:	4619                	li	a2,6
    2954:	00001517          	auipc	a0,0x1
    2958:	47050513          	addi	a0,a0,1136 # 3dc4 <table_week+0x18>
    295c:	00140493          	addi	s1,s0,1
    2960:	02b10c23          	sb	a1,56(sp)
    2964:	7c9000ef          	jal	ra,392c <memchr>
    2968:	c525                	beqz	a0,29d0 <_svfiprintf_r+0x256>
    296a:	ffffd797          	auipc	a5,0xffffd
    296e:	69678793          	addi	a5,a5,1686 # 0 <_sinit>
    2972:	e795                	bnez	a5,299e <_svfiprintf_r+0x224>
    2974:	5702                	lw	a4,32(sp)
    2976:	47f2                	lw	a5,28(sp)
    2978:	10077713          	andi	a4,a4,256
    297c:	cf09                	beqz	a4,2996 <_svfiprintf_r+0x21c>
    297e:	0791                	addi	a5,a5,4
    2980:	ce3e                	sw	a5,28(sp)
    2982:	57d2                	lw	a5,52(sp)
    2984:	97d2                	add	a5,a5,s4
    2986:	da3e                	sw	a5,52(sp)
    2988:	b541                	j	2808 <_svfiprintf_r+0x8e>
    298a:	036787b3          	mul	a5,a5,s6
    298e:	4685                	li	a3,1
    2990:	842e                	mv	s0,a1
    2992:	97ba                	add	a5,a5,a4
    2994:	b741                	j	2914 <_svfiprintf_r+0x19a>
    2996:	079d                	addi	a5,a5,7
    2998:	9be1                	andi	a5,a5,-8
    299a:	07a1                	addi	a5,a5,8
    299c:	b7d5                	j	2980 <_svfiprintf_r+0x206>
    299e:	0878                	addi	a4,sp,28
    29a0:	00000697          	auipc	a3,0x0
    29a4:	cf668693          	addi	a3,a3,-778 # 2696 <__ssputs_r>
    29a8:	864a                	mv	a2,s2
    29aa:	100c                	addi	a1,sp,32
    29ac:	854e                	mv	a0,s3
    29ae:	00000097          	auipc	ra,0x0
    29b2:	000000e7          	jalr	zero # 0 <_sinit>
    29b6:	57fd                	li	a5,-1
    29b8:	8a2a                	mv	s4,a0
    29ba:	fcf514e3          	bne	a0,a5,2982 <_svfiprintf_r+0x208>
    29be:	00c95783          	lhu	a5,12(s2)
    29c2:	557d                	li	a0,-1
    29c4:	0407f793          	andi	a5,a5,64
    29c8:	de079de3          	bnez	a5,27c2 <_svfiprintf_r+0x48>
    29cc:	5552                	lw	a0,52(sp)
    29ce:	bbd5                	j	27c2 <_svfiprintf_r+0x48>
    29d0:	0878                	addi	a4,sp,28
    29d2:	00000697          	auipc	a3,0x0
    29d6:	cc468693          	addi	a3,a3,-828 # 2696 <__ssputs_r>
    29da:	864a                	mv	a2,s2
    29dc:	100c                	addi	a1,sp,32
    29de:	854e                	mv	a0,s3
    29e0:	2379                	jal	2f6e <_printf_i>
    29e2:	bfd1                	j	29b6 <_svfiprintf_r+0x23c>

000029e4 <_sungetc_r>:
    29e4:	1141                	addi	sp,sp,-16
    29e6:	c606                	sw	ra,12(sp)
    29e8:	c422                	sw	s0,8(sp)
    29ea:	c226                	sw	s1,4(sp)
    29ec:	c04a                	sw	s2,0(sp)
    29ee:	57fd                	li	a5,-1
    29f0:	00f59a63          	bne	a1,a5,2a04 <_sungetc_r+0x20>
    29f4:	54fd                	li	s1,-1
    29f6:	40b2                	lw	ra,12(sp)
    29f8:	4422                	lw	s0,8(sp)
    29fa:	8526                	mv	a0,s1
    29fc:	4902                	lw	s2,0(sp)
    29fe:	4492                	lw	s1,4(sp)
    2a00:	0141                	addi	sp,sp,16
    2a02:	8082                	ret
    2a04:	265e                	lhu	a5,12(a2)
    2a06:	0ff5f913          	andi	s2,a1,255
    2a0a:	0ff5f493          	andi	s1,a1,255
    2a0e:	fdf7f793          	andi	a5,a5,-33
    2a12:	a65e                	sh	a5,12(a2)
    2a14:	5a5c                	lw	a5,52(a2)
    2a16:	4258                	lw	a4,4(a2)
    2a18:	c785                	beqz	a5,2a40 <_sungetc_r+0x5c>
    2a1a:	5e1c                	lw	a5,56(a2)
    2a1c:	8432                	mv	s0,a2
    2a1e:	00f75c63          	bge	a4,a5,2a36 <_sungetc_r+0x52>
    2a22:	401c                	lw	a5,0(s0)
    2a24:	fff78713          	addi	a4,a5,-1
    2a28:	c018                	sw	a4,0(s0)
    2a2a:	ff278fa3          	sb	s2,-1(a5)
    2a2e:	405c                	lw	a5,4(s0)
    2a30:	0785                	addi	a5,a5,1
    2a32:	c05c                	sw	a5,4(s0)
    2a34:	b7c9                	j	29f6 <_sungetc_r+0x12>
    2a36:	85b2                	mv	a1,a2
    2a38:	625000ef          	jal	ra,385c <__submore>
    2a3c:	d17d                	beqz	a0,2a22 <_sungetc_r+0x3e>
    2a3e:	bf5d                	j	29f4 <_sungetc_r+0x10>
    2a40:	4a14                	lw	a3,16(a2)
    2a42:	421c                	lw	a5,0(a2)
    2a44:	ce81                	beqz	a3,2a5c <_sungetc_r+0x78>
    2a46:	00f6fb63          	bgeu	a3,a5,2a5c <_sungetc_r+0x78>
    2a4a:	fff7c683          	lbu	a3,-1(a5)
    2a4e:	00969763          	bne	a3,s1,2a5c <_sungetc_r+0x78>
    2a52:	17fd                	addi	a5,a5,-1
    2a54:	0705                	addi	a4,a4,1
    2a56:	c21c                	sw	a5,0(a2)
    2a58:	c258                	sw	a4,4(a2)
    2a5a:	bf71                	j	29f6 <_sungetc_r+0x12>
    2a5c:	de5c                	sw	a5,60(a2)
    2a5e:	04460793          	addi	a5,a2,68
    2a62:	da5c                	sw	a5,52(a2)
    2a64:	478d                	li	a5,3
    2a66:	de1c                	sw	a5,56(a2)
    2a68:	04660793          	addi	a5,a2,70
    2a6c:	c21c                	sw	a5,0(a2)
    2a6e:	4785                	li	a5,1
    2a70:	c238                	sw	a4,64(a2)
    2a72:	05260323          	sb	s2,70(a2)
    2a76:	c25c                	sw	a5,4(a2)
    2a78:	bfbd                	j	29f6 <_sungetc_r+0x12>

00002a7a <__ssrefill_r>:
    2a7a:	1141                	addi	sp,sp,-16
    2a7c:	c422                	sw	s0,8(sp)
    2a7e:	842e                	mv	s0,a1
    2a80:	59cc                	lw	a1,52(a1)
    2a82:	c606                	sw	ra,12(sp)
    2a84:	c19d                	beqz	a1,2aaa <__ssrefill_r+0x30>
    2a86:	04440793          	addi	a5,s0,68
    2a8a:	00f58463          	beq	a1,a5,2a92 <__ssrefill_r+0x18>
    2a8e:	7af000ef          	jal	ra,3a3c <_free_r>
    2a92:	403c                	lw	a5,64(s0)
    2a94:	02042a23          	sw	zero,52(s0)
    2a98:	c05c                	sw	a5,4(s0)
    2a9a:	cb81                	beqz	a5,2aaa <__ssrefill_r+0x30>
    2a9c:	5c5c                	lw	a5,60(s0)
    2a9e:	4501                	li	a0,0
    2aa0:	c01c                	sw	a5,0(s0)
    2aa2:	40b2                	lw	ra,12(sp)
    2aa4:	4422                	lw	s0,8(sp)
    2aa6:	0141                	addi	sp,sp,16
    2aa8:	8082                	ret
    2aaa:	481c                	lw	a5,16(s0)
    2aac:	00042223          	sw	zero,4(s0)
    2ab0:	557d                	li	a0,-1
    2ab2:	c01c                	sw	a5,0(s0)
    2ab4:	245e                	lhu	a5,12(s0)
    2ab6:	0207e793          	ori	a5,a5,32
    2aba:	a45e                	sh	a5,12(s0)
    2abc:	b7dd                	j	2aa2 <__ssrefill_r+0x28>

00002abe <__ssvfiscanf_r>:
    2abe:	d2010113          	addi	sp,sp,-736
    2ac2:	00000797          	auipc	a5,0x0
    2ac6:	f2278793          	addi	a5,a5,-222 # 29e4 <_sungetc_r>
    2aca:	2d312623          	sw	s3,716(sp)
    2ace:	28f12c23          	sw	a5,664(sp)
    2ad2:	01c10993          	addi	s3,sp,28
    2ad6:	00000797          	auipc	a5,0x0
    2ada:	fa478793          	addi	a5,a5,-92 # 2a7a <__ssrefill_r>
    2ade:	2c812c23          	sw	s0,728(sp)
    2ae2:	2c912a23          	sw	s1,724(sp)
    2ae6:	2d212823          	sw	s2,720(sp)
    2aea:	2d412423          	sw	s4,712(sp)
    2aee:	2d512223          	sw	s5,708(sp)
    2af2:	2d612023          	sw	s6,704(sp)
    2af6:	2b712e23          	sw	s7,700(sp)
    2afa:	2b812c23          	sw	s8,696(sp)
    2afe:	2c112e23          	sw	ra,732(sp)
    2b02:	2b912a23          	sw	s9,692(sp)
    2b06:	2ba12823          	sw	s10,688(sp)
    2b0a:	2bb12623          	sw	s11,684(sp)
    2b0e:	84aa                	mv	s1,a0
    2b10:	842e                	mv	s0,a1
    2b12:	12012423          	sw	zero,296(sp)
    2b16:	12012623          	sw	zero,300(sp)
    2b1a:	13312823          	sw	s3,304(sp)
    2b1e:	28f12e23          	sw	a5,668(sp)
    2b22:	cc36                	sw	a3,24(sp)
    2b24:	02500a13          	li	s4,37
    2b28:	02a00b13          	li	s6,42
    2b2c:	4ba5                	li	s7,9
    2b2e:	4929                	li	s2,10
    2b30:	00001a97          	auipc	s5,0x1
    2b34:	290a8a93          	addi	s5,s5,656 # 3dc0 <table_week+0x14>
    2b38:	ffffdc17          	auipc	s8,0xffffd
    2b3c:	4c8c0c13          	addi	s8,s8,1224 # 0 <_sinit>
    2b40:	221c                	lbu	a5,0(a2)
    2b42:	c632                	sw	a2,12(sp)
    2b44:	30078c63          	beqz	a5,2e5c <__ssvfiscanf_r+0x39e>
    2b48:	59b000ef          	jal	ra,38e2 <__locale_ctype_ptr>
    2b4c:	4632                	lw	a2,12(sp)
    2b4e:	00064d83          	lbu	s11,0(a2)
    2b52:	00160c93          	addi	s9,a2,1
    2b56:	956e                	add	a0,a0,s11
    2b58:	311c                	lbu	a5,1(a0)
    2b5a:	8ba1                	andi	a5,a5,8
    2b5c:	c3a1                	beqz	a5,2b9c <__ssvfiscanf_r+0xde>
    2b5e:	405c                	lw	a5,4(s0)
    2b60:	02f05763          	blez	a5,2b8e <__ssvfiscanf_r+0xd0>
    2b64:	57f000ef          	jal	ra,38e2 <__locale_ctype_ptr>
    2b68:	401c                	lw	a5,0(s0)
    2b6a:	2398                	lbu	a4,0(a5)
    2b6c:	953a                	add	a0,a0,a4
    2b6e:	3118                	lbu	a4,1(a0)
    2b70:	8b21                	andi	a4,a4,8
    2b72:	e319                	bnez	a4,2b78 <__ssvfiscanf_r+0xba>
    2b74:	8666                	mv	a2,s9
    2b76:	b7e9                	j	2b40 <__ssvfiscanf_r+0x82>
    2b78:	12c12703          	lw	a4,300(sp)
    2b7c:	0785                	addi	a5,a5,1
    2b7e:	c01c                	sw	a5,0(s0)
    2b80:	0705                	addi	a4,a4,1
    2b82:	12e12623          	sw	a4,300(sp)
    2b86:	4058                	lw	a4,4(s0)
    2b88:	177d                	addi	a4,a4,-1
    2b8a:	c058                	sw	a4,4(s0)
    2b8c:	bfc9                	j	2b5e <__ssvfiscanf_r+0xa0>
    2b8e:	29c12783          	lw	a5,668(sp)
    2b92:	85a2                	mv	a1,s0
    2b94:	8526                	mv	a0,s1
    2b96:	9782                	jalr	a5
    2b98:	d571                	beqz	a0,2b64 <__ssvfiscanf_r+0xa6>
    2b9a:	bfe9                	j	2b74 <__ssvfiscanf_r+0xb6>
    2b9c:	174d9763          	bne	s11,s4,2d0a <__ssvfiscanf_r+0x24c>
    2ba0:	12012223          	sw	zero,292(sp)
    2ba4:	10012e23          	sw	zero,284(sp)
    2ba8:	321c                	lbu	a5,1(a2)
    2baa:	01679763          	bne	a5,s6,2bb8 <__ssvfiscanf_r+0xfa>
    2bae:	47c1                	li	a5,16
    2bb0:	10f12e23          	sw	a5,284(sp)
    2bb4:	00260c93          	addi	s9,a2,2
    2bb8:	000cc583          	lbu	a1,0(s9)
    2bbc:	8d66                	mv	s10,s9
    2bbe:	0c85                	addi	s9,s9,1
    2bc0:	fd058793          	addi	a5,a1,-48
    2bc4:	06fbf063          	bgeu	s7,a5,2c24 <__ssvfiscanf_r+0x166>
    2bc8:	460d                	li	a2,3
    2bca:	8556                	mv	a0,s5
    2bcc:	561000ef          	jal	ra,392c <memchr>
    2bd0:	cd01                	beqz	a0,2be8 <__ssvfiscanf_r+0x12a>
    2bd2:	41550533          	sub	a0,a0,s5
    2bd6:	4785                	li	a5,1
    2bd8:	00a797b3          	sll	a5,a5,a0
    2bdc:	11c12503          	lw	a0,284(sp)
    2be0:	8d66                	mv	s10,s9
    2be2:	8d5d                	or	a0,a0,a5
    2be4:	10a12e23          	sw	a0,284(sp)
    2be8:	000d4783          	lbu	a5,0(s10)
    2bec:	06700713          	li	a4,103
    2bf0:	001d0c93          	addi	s9,s10,1
    2bf4:	08f76663          	bltu	a4,a5,2c80 <__ssvfiscanf_r+0x1c2>
    2bf8:	06500713          	li	a4,101
    2bfc:	1ae7fc63          	bgeu	a5,a4,2db4 <__ssvfiscanf_r+0x2f6>
    2c00:	04700713          	li	a4,71
    2c04:	02f76a63          	bltu	a4,a5,2c38 <__ssvfiscanf_r+0x17a>
    2c08:	04500713          	li	a4,69
    2c0c:	1ae7f463          	bgeu	a5,a4,2db4 <__ssvfiscanf_r+0x2f6>
    2c10:	12078863          	beqz	a5,2d40 <__ssvfiscanf_r+0x282>
    2c14:	0f478b63          	beq	a5,s4,2d0a <__ssvfiscanf_r+0x24c>
    2c18:	478d                	li	a5,3
    2c1a:	12f12a23          	sw	a5,308(sp)
    2c1e:	13212023          	sw	s2,288(sp)
    2c22:	a061                	j	2caa <__ssvfiscanf_r+0x1ec>
    2c24:	12412783          	lw	a5,292(sp)
    2c28:	02f907b3          	mul	a5,s2,a5
    2c2c:	fd078793          	addi	a5,a5,-48
    2c30:	97ae                	add	a5,a5,a1
    2c32:	12f12223          	sw	a5,292(sp)
    2c36:	b749                	j	2bb8 <__ssvfiscanf_r+0xfa>
    2c38:	05b00713          	li	a4,91
    2c3c:	12e78063          	beq	a5,a4,2d5c <__ssvfiscanf_r+0x29e>
    2c40:	02f76563          	bltu	a4,a5,2c6a <__ssvfiscanf_r+0x1ac>
    2c44:	05800713          	li	a4,88
    2c48:	fce798e3          	bne	a5,a4,2c18 <__ssvfiscanf_r+0x15a>
    2c4c:	11c12703          	lw	a4,284(sp)
    2c50:	20076713          	ori	a4,a4,512
    2c54:	10e12e23          	sw	a4,284(sp)
    2c58:	4741                	li	a4,16
    2c5a:	12e12023          	sw	a4,288(sp)
    2c5e:	06e00713          	li	a4,110
    2c62:	00f737b3          	sltu	a5,a4,a5
    2c66:	078d                	addi	a5,a5,3
    2c68:	a83d                	j	2ca6 <__ssvfiscanf_r+0x1e8>
    2c6a:	06300713          	li	a4,99
    2c6e:	10e78463          	beq	a5,a4,2d76 <__ssvfiscanf_r+0x2b8>
    2c72:	06400713          	li	a4,100
    2c76:	fae791e3          	bne	a5,a4,2c18 <__ssvfiscanf_r+0x15a>
    2c7a:	13212023          	sw	s2,288(sp)
    2c7e:	b7c5                	j	2c5e <__ssvfiscanf_r+0x1a0>
    2c80:	07000713          	li	a4,112
    2c84:	0ce78063          	beq	a5,a4,2d44 <__ssvfiscanf_r+0x286>
    2c88:	06f76363          	bltu	a4,a5,2cee <__ssvfiscanf_r+0x230>
    2c8c:	06e00713          	li	a4,110
    2c90:	0ee78c63          	beq	a5,a4,2d88 <__ssvfiscanf_r+0x2ca>
    2c94:	0af76f63          	bltu	a4,a5,2d52 <__ssvfiscanf_r+0x294>
    2c98:	06900713          	li	a4,105
    2c9c:	f6e79ee3          	bne	a5,a4,2c18 <__ssvfiscanf_r+0x15a>
    2ca0:	12012023          	sw	zero,288(sp)
    2ca4:	478d                	li	a5,3
    2ca6:	12f12a23          	sw	a5,308(sp)
    2caa:	405c                	lw	a5,4(s0)
    2cac:	10f05663          	blez	a5,2db8 <__ssvfiscanf_r+0x2fa>
    2cb0:	11c12783          	lw	a5,284(sp)
    2cb4:	0407f793          	andi	a5,a5,64
    2cb8:	eb91                	bnez	a5,2ccc <__ssvfiscanf_r+0x20e>
    2cba:	429000ef          	jal	ra,38e2 <__locale_ctype_ptr>
    2cbe:	401c                	lw	a5,0(s0)
    2cc0:	2398                	lbu	a4,0(a5)
    2cc2:	953a                	add	a0,a0,a4
    2cc4:	3118                	lbu	a4,1(a0)
    2cc6:	8b21                	andi	a4,a4,8
    2cc8:	10071063          	bnez	a4,2dc8 <__ssvfiscanf_r+0x30a>
    2ccc:	13412783          	lw	a5,308(sp)
    2cd0:	4709                	li	a4,2
    2cd2:	12f74063          	blt	a4,a5,2df2 <__ssvfiscanf_r+0x334>
    2cd6:	0834                	addi	a3,sp,24
    2cd8:	8622                	mv	a2,s0
    2cda:	0a6c                	addi	a1,sp,284
    2cdc:	8526                	mv	a0,s1
    2cde:	2b15                	jal	3212 <_scanf_chars>
    2ce0:	4785                	li	a5,1
    2ce2:	16f50d63          	beq	a0,a5,2e5c <__ssvfiscanf_r+0x39e>
    2ce6:	4789                	li	a5,2
    2ce8:	e8f516e3          	bne	a0,a5,2b74 <__ssvfiscanf_r+0xb6>
    2cec:	a0b9                	j	2d3a <__ssvfiscanf_r+0x27c>
    2cee:	07500713          	li	a4,117
    2cf2:	f8e784e3          	beq	a5,a4,2c7a <__ssvfiscanf_r+0x1bc>
    2cf6:	07800713          	li	a4,120
    2cfa:	f4e789e3          	beq	a5,a4,2c4c <__ssvfiscanf_r+0x18e>
    2cfe:	07300713          	li	a4,115
    2d02:	f0e79be3          	bne	a5,a4,2c18 <__ssvfiscanf_r+0x15a>
    2d06:	4789                	li	a5,2
    2d08:	bf79                	j	2ca6 <__ssvfiscanf_r+0x1e8>
    2d0a:	405c                	lw	a5,4(s0)
    2d0c:	02f05163          	blez	a5,2d2e <__ssvfiscanf_r+0x270>
    2d10:	401c                	lw	a5,0(s0)
    2d12:	2398                	lbu	a4,0(a5)
    2d14:	15b71463          	bne	a4,s11,2e5c <__ssvfiscanf_r+0x39e>
    2d18:	0785                	addi	a5,a5,1
    2d1a:	4058                	lw	a4,4(s0)
    2d1c:	c01c                	sw	a5,0(s0)
    2d1e:	12c12783          	lw	a5,300(sp)
    2d22:	177d                	addi	a4,a4,-1
    2d24:	c058                	sw	a4,4(s0)
    2d26:	0785                	addi	a5,a5,1
    2d28:	12f12623          	sw	a5,300(sp)
    2d2c:	b5a1                	j	2b74 <__ssvfiscanf_r+0xb6>
    2d2e:	29c12783          	lw	a5,668(sp)
    2d32:	85a2                	mv	a1,s0
    2d34:	8526                	mv	a0,s1
    2d36:	9782                	jalr	a5
    2d38:	dd61                	beqz	a0,2d10 <__ssvfiscanf_r+0x252>
    2d3a:	12812503          	lw	a0,296(sp)
    2d3e:	ed71                	bnez	a0,2e1a <__ssvfiscanf_r+0x35c>
    2d40:	557d                	li	a0,-1
    2d42:	a0c5                	j	2e22 <__ssvfiscanf_r+0x364>
    2d44:	11c12703          	lw	a4,284(sp)
    2d48:	02076713          	ori	a4,a4,32
    2d4c:	10e12e23          	sw	a4,284(sp)
    2d50:	bdf5                	j	2c4c <__ssvfiscanf_r+0x18e>
    2d52:	47a1                	li	a5,8
    2d54:	12f12023          	sw	a5,288(sp)
    2d58:	4791                	li	a5,4
    2d5a:	b7b1                	j	2ca6 <__ssvfiscanf_r+0x1e8>
    2d5c:	85e6                	mv	a1,s9
    2d5e:	854e                	mv	a0,s3
    2d60:	7e8000ef          	jal	ra,3548 <__sccl>
    2d64:	11c12783          	lw	a5,284(sp)
    2d68:	8caa                	mv	s9,a0
    2d6a:	0407e793          	ori	a5,a5,64
    2d6e:	10f12e23          	sw	a5,284(sp)
    2d72:	4785                	li	a5,1
    2d74:	bf0d                	j	2ca6 <__ssvfiscanf_r+0x1e8>
    2d76:	11c12783          	lw	a5,284(sp)
    2d7a:	12012a23          	sw	zero,308(sp)
    2d7e:	0407e793          	ori	a5,a5,64
    2d82:	10f12e23          	sw	a5,284(sp)
    2d86:	b715                	j	2caa <__ssvfiscanf_r+0x1ec>
    2d88:	11c12783          	lw	a5,284(sp)
    2d8c:	0107f713          	andi	a4,a5,16
    2d90:	de0712e3          	bnez	a4,2b74 <__ssvfiscanf_r+0xb6>
    2d94:	4762                	lw	a4,24(sp)
    2d96:	0017f593          	andi	a1,a5,1
    2d9a:	12c12683          	lw	a3,300(sp)
    2d9e:	00470613          	addi	a2,a4,4
    2da2:	c589                	beqz	a1,2dac <__ssvfiscanf_r+0x2ee>
    2da4:	cc32                	sw	a2,24(sp)
    2da6:	431c                	lw	a5,0(a4)
    2da8:	a396                	sh	a3,0(a5)
    2daa:	b3e9                	j	2b74 <__ssvfiscanf_r+0xb6>
    2dac:	cc32                	sw	a2,24(sp)
    2dae:	431c                	lw	a5,0(a4)
    2db0:	c394                	sw	a3,0(a5)
    2db2:	b3c9                	j	2b74 <__ssvfiscanf_r+0xb6>
    2db4:	4795                	li	a5,5
    2db6:	bdc5                	j	2ca6 <__ssvfiscanf_r+0x1e8>
    2db8:	29c12783          	lw	a5,668(sp)
    2dbc:	85a2                	mv	a1,s0
    2dbe:	8526                	mv	a0,s1
    2dc0:	9782                	jalr	a5
    2dc2:	ee0507e3          	beqz	a0,2cb0 <__ssvfiscanf_r+0x1f2>
    2dc6:	bf95                	j	2d3a <__ssvfiscanf_r+0x27c>
    2dc8:	12c12703          	lw	a4,300(sp)
    2dcc:	0705                	addi	a4,a4,1
    2dce:	12e12623          	sw	a4,300(sp)
    2dd2:	4058                	lw	a4,4(s0)
    2dd4:	177d                	addi	a4,a4,-1
    2dd6:	c058                	sw	a4,4(s0)
    2dd8:	00e05563          	blez	a4,2de2 <__ssvfiscanf_r+0x324>
    2ddc:	0785                	addi	a5,a5,1
    2dde:	c01c                	sw	a5,0(s0)
    2de0:	bde9                	j	2cba <__ssvfiscanf_r+0x1fc>
    2de2:	29c12783          	lw	a5,668(sp)
    2de6:	85a2                	mv	a1,s0
    2de8:	8526                	mv	a0,s1
    2dea:	9782                	jalr	a5
    2dec:	ec0507e3          	beqz	a0,2cba <__ssvfiscanf_r+0x1fc>
    2df0:	b7a9                	j	2d3a <__ssvfiscanf_r+0x27c>
    2df2:	4711                	li	a4,4
    2df4:	00f74863          	blt	a4,a5,2e04 <__ssvfiscanf_r+0x346>
    2df8:	0834                	addi	a3,sp,24
    2dfa:	8622                	mv	a2,s0
    2dfc:	0a6c                	addi	a1,sp,284
    2dfe:	8526                	mv	a0,s1
    2e00:	29cd                	jal	32f2 <_scanf_i>
    2e02:	bdf9                	j	2ce0 <__ssvfiscanf_r+0x222>
    2e04:	d60c08e3          	beqz	s8,2b74 <__ssvfiscanf_r+0xb6>
    2e08:	0834                	addi	a3,sp,24
    2e0a:	8622                	mv	a2,s0
    2e0c:	0a6c                	addi	a1,sp,284
    2e0e:	8526                	mv	a0,s1
    2e10:	00000097          	auipc	ra,0x0
    2e14:	000000e7          	jalr	zero # 0 <_sinit>
    2e18:	b5e1                	j	2ce0 <__ssvfiscanf_r+0x222>
    2e1a:	245e                	lhu	a5,12(s0)
    2e1c:	0407f793          	andi	a5,a5,64
    2e20:	f385                	bnez	a5,2d40 <__ssvfiscanf_r+0x282>
    2e22:	2dc12083          	lw	ra,732(sp)
    2e26:	2d812403          	lw	s0,728(sp)
    2e2a:	2d412483          	lw	s1,724(sp)
    2e2e:	2d012903          	lw	s2,720(sp)
    2e32:	2cc12983          	lw	s3,716(sp)
    2e36:	2c812a03          	lw	s4,712(sp)
    2e3a:	2c412a83          	lw	s5,708(sp)
    2e3e:	2c012b03          	lw	s6,704(sp)
    2e42:	2bc12b83          	lw	s7,700(sp)
    2e46:	2b812c03          	lw	s8,696(sp)
    2e4a:	2b412c83          	lw	s9,692(sp)
    2e4e:	2b012d03          	lw	s10,688(sp)
    2e52:	2ac12d83          	lw	s11,684(sp)
    2e56:	2e010113          	addi	sp,sp,736
    2e5a:	8082                	ret
    2e5c:	12812503          	lw	a0,296(sp)
    2e60:	b7c9                	j	2e22 <__ssvfiscanf_r+0x364>

00002e62 <_printf_common>:
    2e62:	7179                	addi	sp,sp,-48
    2e64:	ca56                	sw	s5,20(sp)
    2e66:	499c                	lw	a5,16(a1)
    2e68:	8aba                	mv	s5,a4
    2e6a:	4598                	lw	a4,8(a1)
    2e6c:	d422                	sw	s0,40(sp)
    2e6e:	d226                	sw	s1,36(sp)
    2e70:	ce4e                	sw	s3,28(sp)
    2e72:	cc52                	sw	s4,24(sp)
    2e74:	d606                	sw	ra,44(sp)
    2e76:	d04a                	sw	s2,32(sp)
    2e78:	c85a                	sw	s6,16(sp)
    2e7a:	c65e                	sw	s7,12(sp)
    2e7c:	89aa                	mv	s3,a0
    2e7e:	842e                	mv	s0,a1
    2e80:	84b2                	mv	s1,a2
    2e82:	8a36                	mv	s4,a3
    2e84:	00e7d363          	bge	a5,a4,2e8a <_printf_common+0x28>
    2e88:	87ba                	mv	a5,a4
    2e8a:	c09c                	sw	a5,0(s1)
    2e8c:	04344703          	lbu	a4,67(s0)
    2e90:	c319                	beqz	a4,2e96 <_printf_common+0x34>
    2e92:	0785                	addi	a5,a5,1
    2e94:	c09c                	sw	a5,0(s1)
    2e96:	401c                	lw	a5,0(s0)
    2e98:	0207f793          	andi	a5,a5,32
    2e9c:	c781                	beqz	a5,2ea4 <_printf_common+0x42>
    2e9e:	409c                	lw	a5,0(s1)
    2ea0:	0789                	addi	a5,a5,2
    2ea2:	c09c                	sw	a5,0(s1)
    2ea4:	00042903          	lw	s2,0(s0)
    2ea8:	00697913          	andi	s2,s2,6
    2eac:	00091a63          	bnez	s2,2ec0 <_printf_common+0x5e>
    2eb0:	01940b13          	addi	s6,s0,25
    2eb4:	5bfd                	li	s7,-1
    2eb6:	445c                	lw	a5,12(s0)
    2eb8:	4098                	lw	a4,0(s1)
    2eba:	8f99                	sub	a5,a5,a4
    2ebc:	04f94c63          	blt	s2,a5,2f14 <_printf_common+0xb2>
    2ec0:	401c                	lw	a5,0(s0)
    2ec2:	04344683          	lbu	a3,67(s0)
    2ec6:	0207f793          	andi	a5,a5,32
    2eca:	00d036b3          	snez	a3,a3
    2ece:	eba5                	bnez	a5,2f3e <_printf_common+0xdc>
    2ed0:	04340613          	addi	a2,s0,67
    2ed4:	85d2                	mv	a1,s4
    2ed6:	854e                	mv	a0,s3
    2ed8:	9a82                	jalr	s5
    2eda:	57fd                	li	a5,-1
    2edc:	04f50363          	beq	a0,a5,2f22 <_printf_common+0xc0>
    2ee0:	401c                	lw	a5,0(s0)
    2ee2:	4611                	li	a2,4
    2ee4:	4098                	lw	a4,0(s1)
    2ee6:	8b99                	andi	a5,a5,6
    2ee8:	4454                	lw	a3,12(s0)
    2eea:	4481                	li	s1,0
    2eec:	00c79763          	bne	a5,a2,2efa <_printf_common+0x98>
    2ef0:	40e684b3          	sub	s1,a3,a4
    2ef4:	0004d363          	bgez	s1,2efa <_printf_common+0x98>
    2ef8:	4481                	li	s1,0
    2efa:	441c                	lw	a5,8(s0)
    2efc:	4818                	lw	a4,16(s0)
    2efe:	00f75463          	bge	a4,a5,2f06 <_printf_common+0xa4>
    2f02:	8f99                	sub	a5,a5,a4
    2f04:	94be                	add	s1,s1,a5
    2f06:	4901                	li	s2,0
    2f08:	0469                	addi	s0,s0,26
    2f0a:	5b7d                	li	s6,-1
    2f0c:	05249863          	bne	s1,s2,2f5c <_printf_common+0xfa>
    2f10:	4501                	li	a0,0
    2f12:	a809                	j	2f24 <_printf_common+0xc2>
    2f14:	4685                	li	a3,1
    2f16:	865a                	mv	a2,s6
    2f18:	85d2                	mv	a1,s4
    2f1a:	854e                	mv	a0,s3
    2f1c:	9a82                	jalr	s5
    2f1e:	01751e63          	bne	a0,s7,2f3a <_printf_common+0xd8>
    2f22:	557d                	li	a0,-1
    2f24:	50b2                	lw	ra,44(sp)
    2f26:	5422                	lw	s0,40(sp)
    2f28:	5492                	lw	s1,36(sp)
    2f2a:	5902                	lw	s2,32(sp)
    2f2c:	49f2                	lw	s3,28(sp)
    2f2e:	4a62                	lw	s4,24(sp)
    2f30:	4ad2                	lw	s5,20(sp)
    2f32:	4b42                	lw	s6,16(sp)
    2f34:	4bb2                	lw	s7,12(sp)
    2f36:	6145                	addi	sp,sp,48
    2f38:	8082                	ret
    2f3a:	0905                	addi	s2,s2,1
    2f3c:	bfad                	j	2eb6 <_printf_common+0x54>
    2f3e:	00d40733          	add	a4,s0,a3
    2f42:	03000613          	li	a2,48
    2f46:	04c701a3          	sb	a2,67(a4)
    2f4a:	04544703          	lbu	a4,69(s0)
    2f4e:	00168793          	addi	a5,a3,1
    2f52:	97a2                	add	a5,a5,s0
    2f54:	0689                	addi	a3,a3,2
    2f56:	04e781a3          	sb	a4,67(a5)
    2f5a:	bf9d                	j	2ed0 <_printf_common+0x6e>
    2f5c:	4685                	li	a3,1
    2f5e:	8622                	mv	a2,s0
    2f60:	85d2                	mv	a1,s4
    2f62:	854e                	mv	a0,s3
    2f64:	9a82                	jalr	s5
    2f66:	fb650ee3          	beq	a0,s6,2f22 <_printf_common+0xc0>
    2f6a:	0905                	addi	s2,s2,1
    2f6c:	b745                	j	2f0c <_printf_common+0xaa>

00002f6e <_printf_i>:
    2f6e:	7179                	addi	sp,sp,-48
    2f70:	d422                	sw	s0,40(sp)
    2f72:	d226                	sw	s1,36(sp)
    2f74:	d04a                	sw	s2,32(sp)
    2f76:	ce4e                	sw	s3,28(sp)
    2f78:	d606                	sw	ra,44(sp)
    2f7a:	cc52                	sw	s4,24(sp)
    2f7c:	ca56                	sw	s5,20(sp)
    2f7e:	c85a                	sw	s6,16(sp)
    2f80:	89b6                	mv	s3,a3
    2f82:	2d94                	lbu	a3,24(a1)
    2f84:	06900793          	li	a5,105
    2f88:	8932                	mv	s2,a2
    2f8a:	84aa                	mv	s1,a0
    2f8c:	842e                	mv	s0,a1
    2f8e:	04358613          	addi	a2,a1,67
    2f92:	02f68d63          	beq	a3,a5,2fcc <_printf_i+0x5e>
    2f96:	06d7e263          	bltu	a5,a3,2ffa <_printf_i+0x8c>
    2f9a:	05800793          	li	a5,88
    2f9e:	18f68763          	beq	a3,a5,312c <_printf_i+0x1be>
    2fa2:	00d7ed63          	bltu	a5,a3,2fbc <_printf_i+0x4e>
    2fa6:	20068f63          	beqz	a3,31c4 <_printf_i+0x256>
    2faa:	04300793          	li	a5,67
    2fae:	0af68f63          	beq	a3,a5,306c <_printf_i+0xfe>
    2fb2:	04240a93          	addi	s5,s0,66
    2fb6:	04d40123          	sb	a3,66(s0)
    2fba:	a0d1                	j	307e <_printf_i+0x110>
    2fbc:	06300793          	li	a5,99
    2fc0:	0af68663          	beq	a3,a5,306c <_printf_i+0xfe>
    2fc4:	06400793          	li	a5,100
    2fc8:	fef695e3          	bne	a3,a5,2fb2 <_printf_i+0x44>
    2fcc:	401c                	lw	a5,0(s0)
    2fce:	4308                	lw	a0,0(a4)
    2fd0:	0807f693          	andi	a3,a5,128
    2fd4:	00450593          	addi	a1,a0,4
    2fd8:	c6cd                	beqz	a3,3082 <_printf_i+0x114>
    2fda:	411c                	lw	a5,0(a0)
    2fdc:	c30c                	sw	a1,0(a4)
    2fde:	0007d863          	bgez	a5,2fee <_printf_i+0x80>
    2fe2:	02d00713          	li	a4,45
    2fe6:	40f007b3          	neg	a5,a5
    2fea:	04e401a3          	sb	a4,67(s0)
    2fee:	00001697          	auipc	a3,0x1
    2ff2:	dde68693          	addi	a3,a3,-546 # 3dcc <table_week+0x20>
    2ff6:	4729                	li	a4,10
    2ff8:	a86d                	j	30b2 <_printf_i+0x144>
    2ffa:	07000793          	li	a5,112
    2ffe:	16f68363          	beq	a3,a5,3164 <_printf_i+0x1f6>
    3002:	02d7e563          	bltu	a5,a3,302c <_printf_i+0xbe>
    3006:	06e00793          	li	a5,110
    300a:	18f68a63          	beq	a3,a5,319e <_printf_i+0x230>
    300e:	06f00793          	li	a5,111
    3012:	faf690e3          	bne	a3,a5,2fb2 <_printf_i+0x44>
    3016:	400c                	lw	a1,0(s0)
    3018:	431c                	lw	a5,0(a4)
    301a:	0805f813          	andi	a6,a1,128
    301e:	00478513          	addi	a0,a5,4
    3022:	06080863          	beqz	a6,3092 <_printf_i+0x124>
    3026:	c308                	sw	a0,0(a4)
    3028:	439c                	lw	a5,0(a5)
    302a:	a88d                	j	309c <_printf_i+0x12e>
    302c:	07500793          	li	a5,117
    3030:	fef683e3          	beq	a3,a5,3016 <_printf_i+0xa8>
    3034:	07800793          	li	a5,120
    3038:	12f68a63          	beq	a3,a5,316c <_printf_i+0x1fe>
    303c:	07300793          	li	a5,115
    3040:	f6f699e3          	bne	a3,a5,2fb2 <_printf_i+0x44>
    3044:	431c                	lw	a5,0(a4)
    3046:	41d0                	lw	a2,4(a1)
    3048:	4581                	li	a1,0
    304a:	00478693          	addi	a3,a5,4
    304e:	c314                	sw	a3,0(a4)
    3050:	0007aa83          	lw	s5,0(a5)
    3054:	8556                	mv	a0,s5
    3056:	0d7000ef          	jal	ra,392c <memchr>
    305a:	c501                	beqz	a0,3062 <_printf_i+0xf4>
    305c:	41550533          	sub	a0,a0,s5
    3060:	c048                	sw	a0,4(s0)
    3062:	405c                	lw	a5,4(s0)
    3064:	c81c                	sw	a5,16(s0)
    3066:	040401a3          	sb	zero,67(s0)
    306a:	a861                	j	3102 <_printf_i+0x194>
    306c:	431c                	lw	a5,0(a4)
    306e:	04240a93          	addi	s5,s0,66
    3072:	00478693          	addi	a3,a5,4
    3076:	439c                	lw	a5,0(a5)
    3078:	c314                	sw	a3,0(a4)
    307a:	04f40123          	sb	a5,66(s0)
    307e:	4785                	li	a5,1
    3080:	b7d5                	j	3064 <_printf_i+0xf6>
    3082:	0407f693          	andi	a3,a5,64
    3086:	411c                	lw	a5,0(a0)
    3088:	c30c                	sw	a1,0(a4)
    308a:	dab1                	beqz	a3,2fde <_printf_i+0x70>
    308c:	07c2                	slli	a5,a5,0x10
    308e:	87c1                	srai	a5,a5,0x10
    3090:	b7b9                	j	2fde <_printf_i+0x70>
    3092:	0405f593          	andi	a1,a1,64
    3096:	c308                	sw	a0,0(a4)
    3098:	d9c1                	beqz	a1,3028 <_printf_i+0xba>
    309a:	239e                	lhu	a5,0(a5)
    309c:	06f00713          	li	a4,111
    30a0:	0ee68763          	beq	a3,a4,318e <_printf_i+0x220>
    30a4:	00001697          	auipc	a3,0x1
    30a8:	d2868693          	addi	a3,a3,-728 # 3dcc <table_week+0x20>
    30ac:	4729                	li	a4,10
    30ae:	040401a3          	sb	zero,67(s0)
    30b2:	404c                	lw	a1,4(s0)
    30b4:	c40c                	sw	a1,8(s0)
    30b6:	0005c563          	bltz	a1,30c0 <_printf_i+0x152>
    30ba:	4008                	lw	a0,0(s0)
    30bc:	996d                	andi	a0,a0,-5
    30be:	c008                	sw	a0,0(s0)
    30c0:	e399                	bnez	a5,30c6 <_printf_i+0x158>
    30c2:	8ab2                	mv	s5,a2
    30c4:	cd89                	beqz	a1,30de <_printf_i+0x170>
    30c6:	8ab2                	mv	s5,a2
    30c8:	02e7f5b3          	remu	a1,a5,a4
    30cc:	1afd                	addi	s5,s5,-1
    30ce:	95b6                	add	a1,a1,a3
    30d0:	218c                	lbu	a1,0(a1)
    30d2:	00ba8023          	sb	a1,0(s5)
    30d6:	02e7d5b3          	divu	a1,a5,a4
    30da:	0ce7f063          	bgeu	a5,a4,319a <_printf_i+0x22c>
    30de:	47a1                	li	a5,8
    30e0:	00f71e63          	bne	a4,a5,30fc <_printf_i+0x18e>
    30e4:	401c                	lw	a5,0(s0)
    30e6:	8b85                	andi	a5,a5,1
    30e8:	cb91                	beqz	a5,30fc <_printf_i+0x18e>
    30ea:	4058                	lw	a4,4(s0)
    30ec:	481c                	lw	a5,16(s0)
    30ee:	00e7c763          	blt	a5,a4,30fc <_printf_i+0x18e>
    30f2:	03000793          	li	a5,48
    30f6:	fefa8fa3          	sb	a5,-1(s5)
    30fa:	1afd                	addi	s5,s5,-1
    30fc:	41560633          	sub	a2,a2,s5
    3100:	c810                	sw	a2,16(s0)
    3102:	874e                	mv	a4,s3
    3104:	86ca                	mv	a3,s2
    3106:	0070                	addi	a2,sp,12
    3108:	85a2                	mv	a1,s0
    310a:	8526                	mv	a0,s1
    310c:	d57ff0ef          	jal	ra,2e62 <_printf_common>
    3110:	5a7d                	li	s4,-1
    3112:	0b451d63          	bne	a0,s4,31cc <_printf_i+0x25e>
    3116:	557d                	li	a0,-1
    3118:	50b2                	lw	ra,44(sp)
    311a:	5422                	lw	s0,40(sp)
    311c:	5492                	lw	s1,36(sp)
    311e:	5902                	lw	s2,32(sp)
    3120:	49f2                	lw	s3,28(sp)
    3122:	4a62                	lw	s4,24(sp)
    3124:	4ad2                	lw	s5,20(sp)
    3126:	4b42                	lw	s6,16(sp)
    3128:	6145                	addi	sp,sp,48
    312a:	8082                	ret
    312c:	04d582a3          	sb	a3,69(a1)
    3130:	00001697          	auipc	a3,0x1
    3134:	c9c68693          	addi	a3,a3,-868 # 3dcc <table_week+0x20>
    3138:	400c                	lw	a1,0(s0)
    313a:	4308                	lw	a0,0(a4)
    313c:	0805f813          	andi	a6,a1,128
    3140:	411c                	lw	a5,0(a0)
    3142:	0511                	addi	a0,a0,4
    3144:	02080d63          	beqz	a6,317e <_printf_i+0x210>
    3148:	c308                	sw	a0,0(a4)
    314a:	0015f713          	andi	a4,a1,1
    314e:	c701                	beqz	a4,3156 <_printf_i+0x1e8>
    3150:	0205e593          	ori	a1,a1,32
    3154:	c00c                	sw	a1,0(s0)
    3156:	4741                	li	a4,16
    3158:	fbb9                	bnez	a5,30ae <_printf_i+0x140>
    315a:	400c                	lw	a1,0(s0)
    315c:	fdf5f593          	andi	a1,a1,-33
    3160:	c00c                	sw	a1,0(s0)
    3162:	b7b1                	j	30ae <_printf_i+0x140>
    3164:	419c                	lw	a5,0(a1)
    3166:	0207e793          	ori	a5,a5,32
    316a:	c19c                	sw	a5,0(a1)
    316c:	07800793          	li	a5,120
    3170:	04f402a3          	sb	a5,69(s0)
    3174:	00001697          	auipc	a3,0x1
    3178:	c6c68693          	addi	a3,a3,-916 # 3de0 <table_week+0x34>
    317c:	bf75                	j	3138 <_printf_i+0x1ca>
    317e:	0405f813          	andi	a6,a1,64
    3182:	c308                	sw	a0,0(a4)
    3184:	fc0803e3          	beqz	a6,314a <_printf_i+0x1dc>
    3188:	07c2                	slli	a5,a5,0x10
    318a:	83c1                	srli	a5,a5,0x10
    318c:	bf7d                	j	314a <_printf_i+0x1dc>
    318e:	00001697          	auipc	a3,0x1
    3192:	c3e68693          	addi	a3,a3,-962 # 3dcc <table_week+0x20>
    3196:	4721                	li	a4,8
    3198:	bf19                	j	30ae <_printf_i+0x140>
    319a:	87ae                	mv	a5,a1
    319c:	b735                	j	30c8 <_printf_i+0x15a>
    319e:	4194                	lw	a3,0(a1)
    31a0:	431c                	lw	a5,0(a4)
    31a2:	49cc                	lw	a1,20(a1)
    31a4:	0806f813          	andi	a6,a3,128
    31a8:	00478513          	addi	a0,a5,4
    31ac:	00080663          	beqz	a6,31b8 <_printf_i+0x24a>
    31b0:	c308                	sw	a0,0(a4)
    31b2:	439c                	lw	a5,0(a5)
    31b4:	c38c                	sw	a1,0(a5)
    31b6:	a039                	j	31c4 <_printf_i+0x256>
    31b8:	c308                	sw	a0,0(a4)
    31ba:	0406f693          	andi	a3,a3,64
    31be:	439c                	lw	a5,0(a5)
    31c0:	daf5                	beqz	a3,31b4 <_printf_i+0x246>
    31c2:	a38e                	sh	a1,0(a5)
    31c4:	00042823          	sw	zero,16(s0)
    31c8:	8ab2                	mv	s5,a2
    31ca:	bf25                	j	3102 <_printf_i+0x194>
    31cc:	4814                	lw	a3,16(s0)
    31ce:	8656                	mv	a2,s5
    31d0:	85ca                	mv	a1,s2
    31d2:	8526                	mv	a0,s1
    31d4:	9982                	jalr	s3
    31d6:	f54500e3          	beq	a0,s4,3116 <_printf_i+0x1a8>
    31da:	401c                	lw	a5,0(s0)
    31dc:	8b89                	andi	a5,a5,2
    31de:	e78d                	bnez	a5,3208 <_printf_i+0x29a>
    31e0:	47b2                	lw	a5,12(sp)
    31e2:	4448                	lw	a0,12(s0)
    31e4:	f2f55ae3          	bge	a0,a5,3118 <_printf_i+0x1aa>
    31e8:	853e                	mv	a0,a5
    31ea:	b73d                	j	3118 <_printf_i+0x1aa>
    31ec:	4685                	li	a3,1
    31ee:	8656                	mv	a2,s5
    31f0:	85ca                	mv	a1,s2
    31f2:	8526                	mv	a0,s1
    31f4:	9982                	jalr	s3
    31f6:	f36500e3          	beq	a0,s6,3116 <_printf_i+0x1a8>
    31fa:	0a05                	addi	s4,s4,1
    31fc:	445c                	lw	a5,12(s0)
    31fe:	4732                	lw	a4,12(sp)
    3200:	8f99                	sub	a5,a5,a4
    3202:	fefa45e3          	blt	s4,a5,31ec <_printf_i+0x27e>
    3206:	bfe9                	j	31e0 <_printf_i+0x272>
    3208:	4a01                	li	s4,0
    320a:	01940a93          	addi	s5,s0,25
    320e:	5b7d                	li	s6,-1
    3210:	b7f5                	j	31fc <_printf_i+0x28e>

00003212 <_scanf_chars>:
    3212:	459c                	lw	a5,8(a1)
    3214:	1101                	addi	sp,sp,-32
    3216:	cc22                	sw	s0,24(sp)
    3218:	ca26                	sw	s1,20(sp)
    321a:	c452                	sw	s4,8(sp)
    321c:	ce06                	sw	ra,28(sp)
    321e:	c84a                	sw	s2,16(sp)
    3220:	c64e                	sw	s3,12(sp)
    3222:	c256                	sw	s5,4(sp)
    3224:	c05a                	sw	s6,0(sp)
    3226:	8a2a                	mv	s4,a0
    3228:	842e                	mv	s0,a1
    322a:	84b2                	mv	s1,a2
    322c:	e791                	bnez	a5,3238 <_scanf_chars+0x26>
    322e:	4d98                	lw	a4,24(a1)
    3230:	4785                	li	a5,1
    3232:	c311                	beqz	a4,3236 <_scanf_chars+0x24>
    3234:	57fd                	li	a5,-1
    3236:	c41c                	sw	a5,8(s0)
    3238:	401c                	lw	a5,0(s0)
    323a:	8bc1                	andi	a5,a5,16
    323c:	e799                	bnez	a5,324a <_scanf_chars+0x38>
    323e:	429c                	lw	a5,0(a3)
    3240:	00478713          	addi	a4,a5,4
    3244:	c298                	sw	a4,0(a3)
    3246:	0007a983          	lw	s3,0(a5)
    324a:	4901                	li	s2,0
    324c:	4a85                	li	s5,1
    324e:	4b09                	li	s6,2
    3250:	4c08                	lw	a0,24(s0)
    3252:	c50d                	beqz	a0,327c <_scanf_chars+0x6a>
    3254:	07551f63          	bne	a0,s5,32d2 <_scanf_chars+0xc0>
    3258:	409c                	lw	a5,0(s1)
    325a:	2398                	lbu	a4,0(a5)
    325c:	485c                	lw	a5,20(s0)
    325e:	97ba                	add	a5,a5,a4
    3260:	239c                	lbu	a5,0(a5)
    3262:	ef89                	bnez	a5,327c <_scanf_chars+0x6a>
    3264:	04091763          	bnez	s2,32b2 <_scanf_chars+0xa0>
    3268:	40f2                	lw	ra,28(sp)
    326a:	4462                	lw	s0,24(sp)
    326c:	44d2                	lw	s1,20(sp)
    326e:	4942                	lw	s2,16(sp)
    3270:	49b2                	lw	s3,12(sp)
    3272:	4a22                	lw	s4,8(sp)
    3274:	4a92                	lw	s5,4(sp)
    3276:	4b02                	lw	s6,0(sp)
    3278:	6105                	addi	sp,sp,32
    327a:	8082                	ret
    327c:	401c                	lw	a5,0(s0)
    327e:	0905                	addi	s2,s2,1
    3280:	8bc1                	andi	a5,a5,16
    3282:	e791                	bnez	a5,328e <_scanf_chars+0x7c>
    3284:	409c                	lw	a5,0(s1)
    3286:	0985                	addi	s3,s3,1
    3288:	239c                	lbu	a5,0(a5)
    328a:	fef98fa3          	sb	a5,-1(s3)
    328e:	4098                	lw	a4,0(s1)
    3290:	40dc                	lw	a5,4(s1)
    3292:	0705                	addi	a4,a4,1
    3294:	c098                	sw	a4,0(s1)
    3296:	4418                	lw	a4,8(s0)
    3298:	17fd                	addi	a5,a5,-1
    329a:	c0dc                	sw	a5,4(s1)
    329c:	177d                	addi	a4,a4,-1
    329e:	c418                	sw	a4,8(s0)
    32a0:	cb09                	beqz	a4,32b2 <_scanf_chars+0xa0>
    32a2:	faf047e3          	bgtz	a5,3250 <_scanf_chars+0x3e>
    32a6:	18042783          	lw	a5,384(s0)
    32aa:	85a6                	mv	a1,s1
    32ac:	8552                	mv	a0,s4
    32ae:	9782                	jalr	a5
    32b0:	d145                	beqz	a0,3250 <_scanf_chars+0x3e>
    32b2:	401c                	lw	a5,0(s0)
    32b4:	8bc1                	andi	a5,a5,16
    32b6:	eb81                	bnez	a5,32c6 <_scanf_chars+0xb4>
    32b8:	445c                	lw	a5,12(s0)
    32ba:	0785                	addi	a5,a5,1
    32bc:	c45c                	sw	a5,12(s0)
    32be:	4c1c                	lw	a5,24(s0)
    32c0:	c399                	beqz	a5,32c6 <_scanf_chars+0xb4>
    32c2:	00098023          	sb	zero,0(s3)
    32c6:	481c                	lw	a5,16(s0)
    32c8:	4501                	li	a0,0
    32ca:	993e                	add	s2,s2,a5
    32cc:	01242823          	sw	s2,16(s0)
    32d0:	bf61                	j	3268 <_scanf_chars+0x56>
    32d2:	01651963          	bne	a0,s6,32e4 <_scanf_chars+0xd2>
    32d6:	2531                	jal	38e2 <__locale_ctype_ptr>
    32d8:	409c                	lw	a5,0(s1)
    32da:	239c                	lbu	a5,0(a5)
    32dc:	953e                	add	a0,a0,a5
    32de:	311c                	lbu	a5,1(a0)
    32e0:	8ba1                	andi	a5,a5,8
    32e2:	dfc9                	beqz	a5,327c <_scanf_chars+0x6a>
    32e4:	fc0917e3          	bnez	s2,32b2 <_scanf_chars+0xa0>
    32e8:	4c08                	lw	a0,24(s0)
    32ea:	4785                	li	a5,1
    32ec:	fcf513e3          	bne	a0,a5,32b2 <_scanf_chars+0xa0>
    32f0:	bfa5                	j	3268 <_scanf_chars+0x56>

000032f2 <_scanf_i>:
    32f2:	715d                	addi	sp,sp,-80
    32f4:	00001797          	auipc	a5,0x1
    32f8:	b1478793          	addi	a5,a5,-1260 # 3e08 <table_week+0x5c>
    32fc:	c0ca                	sw	s2,64(sp)
    32fe:	c23e                	sw	a5,4(sp)
    3300:	8936                	mv	s2,a3
    3302:	00001797          	auipc	a5,0x1
    3306:	b0a78793          	addi	a5,a5,-1270 # 3e0c <table_week+0x60>
    330a:	4d94                	lw	a3,24(a1)
    330c:	c43e                	sw	a5,8(sp)
    330e:	00001797          	auipc	a5,0x1
    3312:	b0278793          	addi	a5,a5,-1278 # 3e10 <table_week+0x64>
    3316:	c4a2                	sw	s0,72(sp)
    3318:	de4e                	sw	s3,60(sp)
    331a:	d85a                	sw	s6,48(sp)
    331c:	ce6e                	sw	s11,28(sp)
    331e:	c63e                	sw	a5,12(sp)
    3320:	c686                	sw	ra,76(sp)
    3322:	c2a6                	sw	s1,68(sp)
    3324:	dc52                	sw	s4,56(sp)
    3326:	da56                	sw	s5,52(sp)
    3328:	d65e                	sw	s7,44(sp)
    332a:	d462                	sw	s8,40(sp)
    332c:	d266                	sw	s9,36(sp)
    332e:	d06a                	sw	s10,32(sp)
    3330:	478d                	li	a5,3
    3332:	89aa                	mv	s3,a0
    3334:	842e                	mv	s0,a1
    3336:	8db2                	mv	s11,a2
    3338:	00000b17          	auipc	s6,0x0
    333c:	50eb0b13          	addi	s6,s6,1294 # 3846 <_strtoul_r>
    3340:	00f69663          	bne	a3,a5,334c <_scanf_i+0x5a>
    3344:	00000b17          	auipc	s6,0x0
    3348:	3beb0b13          	addi	s6,s6,958 # 3702 <_strtol_r>
    334c:	441c                	lw	a5,8(s0)
    334e:	15c00693          	li	a3,348
    3352:	4a01                	li	s4,0
    3354:	fff78613          	addi	a2,a5,-1
    3358:	00c6f763          	bgeu	a3,a2,3366 <_scanf_i+0x74>
    335c:	ea378a13          	addi	s4,a5,-349
    3360:	15d00793          	li	a5,349
    3364:	c41c                	sw	a5,8(s0)
    3366:	401c                	lw	a5,0(s0)
    3368:	6685                	lui	a3,0x1
    336a:	d0068693          	addi	a3,a3,-768 # d00 <CTR_LP+0x2e4>
    336e:	01c40493          	addi	s1,s0,28
    3372:	8fd5                	or	a5,a5,a3
    3374:	c01c                	sw	a5,0(s0)
    3376:	00410c13          	addi	s8,sp,4
    337a:	8aa6                	mv	s5,s1
    337c:	4b81                	li	s7,0
    337e:	20000c93          	li	s9,512
    3382:	000da783          	lw	a5,0(s11)
    3386:	000c2503          	lw	a0,0(s8)
    338a:	4609                	li	a2,2
    338c:	238c                	lbu	a1,0(a5)
    338e:	2b79                	jal	392c <memchr>
    3390:	cd39                	beqz	a0,33ee <_scanf_i+0xfc>
    3392:	4785                	li	a5,1
    3394:	0cfb9e63          	bne	s7,a5,3470 <_scanf_i+0x17e>
    3398:	405c                	lw	a5,4(s0)
    339a:	e799                	bnez	a5,33a8 <_scanf_i+0xb6>
    339c:	401c                	lw	a5,0(s0)
    339e:	4721                	li	a4,8
    33a0:	c058                	sw	a4,4(s0)
    33a2:	2007e793          	ori	a5,a5,512
    33a6:	c01c                	sw	a5,0(s0)
    33a8:	401c                	lw	a5,0(s0)
    33aa:	aff7f793          	andi	a5,a5,-1281
    33ae:	c01c                	sw	a5,0(s0)
    33b0:	441c                	lw	a5,8(s0)
    33b2:	fff78613          	addi	a2,a5,-1
    33b6:	c410                	sw	a2,8(s0)
    33b8:	cb9d                	beqz	a5,33ee <_scanf_i+0xfc>
    33ba:	000da603          	lw	a2,0(s11)
    33be:	001a8d13          	addi	s10,s5,1
    33c2:	00160793          	addi	a5,a2,1
    33c6:	00fda023          	sw	a5,0(s11)
    33ca:	2210                	lbu	a2,0(a2)
    33cc:	00ca8023          	sb	a2,0(s5)
    33d0:	004da603          	lw	a2,4(s11)
    33d4:	8aea                	mv	s5,s10
    33d6:	167d                	addi	a2,a2,-1
    33d8:	00cda223          	sw	a2,4(s11)
    33dc:	00c04963          	bgtz	a2,33ee <_scanf_i+0xfc>
    33e0:	18042603          	lw	a2,384(s0)
    33e4:	85ee                	mv	a1,s11
    33e6:	854e                	mv	a0,s3
    33e8:	9602                	jalr	a2
    33ea:	10051863          	bnez	a0,34fa <_scanf_i+0x208>
    33ee:	0b85                	addi	s7,s7,1
    33f0:	478d                	li	a5,3
    33f2:	0c11                	addi	s8,s8,4
    33f4:	f8fb97e3          	bne	s7,a5,3382 <_scanf_i+0x90>
    33f8:	405c                	lw	a5,4(s0)
    33fa:	e399                	bnez	a5,3400 <_scanf_i+0x10e>
    33fc:	47a9                	li	a5,10
    33fe:	c05c                	sw	a5,4(s0)
    3400:	405c                	lw	a5,4(s0)
    3402:	4848                	lw	a0,20(s0)
    3404:	00001597          	auipc	a1,0x1
    3408:	a0058593          	addi	a1,a1,-1536 # 3e04 <table_week+0x58>
    340c:	8d9d                	sub	a1,a1,a5
    340e:	7bfd                	lui	s7,0xfffff
    3410:	6c05                	lui	s8,0x1
    3412:	8d56                	mv	s10,s5
    3414:	2a15                	jal	3548 <__sccl>
    3416:	4a81                	li	s5,0
    3418:	03000c93          	li	s9,48
    341c:	6ffb8b93          	addi	s7,s7,1791 # fffff6ff <_eusrstack+0xdfffa6ff>
    3420:	800c0c13          	addi	s8,s8,-2048 # 800 <__stack_size>
    3424:	4414                	lw	a3,8(s0)
    3426:	4010                	lw	a2,0(s0)
    3428:	cebd                	beqz	a3,34a6 <_scanf_i+0x1b4>
    342a:	000da503          	lw	a0,0(s11)
    342e:	484c                	lw	a1,20(s0)
    3430:	00054803          	lbu	a6,0(a0)
    3434:	95c2                	add	a1,a1,a6
    3436:	218c                	lbu	a1,0(a1)
    3438:	c5bd                	beqz	a1,34a6 <_scanf_i+0x1b4>
    343a:	05981863          	bne	a6,s9,348a <_scanf_i+0x198>
    343e:	018675b3          	and	a1,a2,s8
    3442:	c5a1                	beqz	a1,348a <_scanf_i+0x198>
    3444:	0a85                	addi	s5,s5,1
    3446:	000a0563          	beqz	s4,3450 <_scanf_i+0x15e>
    344a:	0685                	addi	a3,a3,1
    344c:	1a7d                	addi	s4,s4,-1
    344e:	c414                	sw	a3,8(s0)
    3450:	004da683          	lw	a3,4(s11)
    3454:	16fd                	addi	a3,a3,-1
    3456:	00dda223          	sw	a3,4(s11)
    345a:	04d05063          	blez	a3,349a <_scanf_i+0x1a8>
    345e:	000da683          	lw	a3,0(s11)
    3462:	0685                	addi	a3,a3,1
    3464:	00dda023          	sw	a3,0(s11)
    3468:	4414                	lw	a3,8(s0)
    346a:	16fd                	addi	a3,a3,-1
    346c:	c414                	sw	a3,8(s0)
    346e:	bf5d                	j	3424 <_scanf_i+0x132>
    3470:	4789                	li	a5,2
    3472:	f2fb9fe3          	bne	s7,a5,33b0 <_scanf_i+0xbe>
    3476:	401c                	lw	a5,0(s0)
    3478:	6007f613          	andi	a2,a5,1536
    347c:	f79619e3          	bne	a2,s9,33ee <_scanf_i+0xfc>
    3480:	4741                	li	a4,16
    3482:	c058                	sw	a4,4(s0)
    3484:	1007e793          	ori	a5,a5,256
    3488:	b71d                	j	33ae <_scanf_i+0xbc>
    348a:	01767633          	and	a2,a2,s7
    348e:	c010                	sw	a2,0(s0)
    3490:	2114                	lbu	a3,0(a0)
    3492:	0d05                	addi	s10,s10,1
    3494:	fedd0fa3          	sb	a3,-1(s10)
    3498:	bf65                	j	3450 <_scanf_i+0x15e>
    349a:	18042683          	lw	a3,384(s0)
    349e:	85ee                	mv	a1,s11
    34a0:	854e                	mv	a0,s3
    34a2:	9682                	jalr	a3
    34a4:	d171                	beqz	a0,3468 <_scanf_i+0x176>
    34a6:	4014                	lw	a3,0(s0)
    34a8:	1006f693          	andi	a3,a3,256
    34ac:	c285                	beqz	a3,34cc <_scanf_i+0x1da>
    34ae:	01a4fc63          	bgeu	s1,s10,34c6 <_scanf_i+0x1d4>
    34b2:	fffd4583          	lbu	a1,-1(s10)
    34b6:	17c42683          	lw	a3,380(s0)
    34ba:	fffd0a13          	addi	s4,s10,-1
    34be:	866e                	mv	a2,s11
    34c0:	854e                	mv	a0,s3
    34c2:	9682                	jalr	a3
    34c4:	8d52                	mv	s10,s4
    34c6:	4505                	li	a0,1
    34c8:	049d0e63          	beq	s10,s1,3524 <_scanf_i+0x232>
    34cc:	4018                	lw	a4,0(s0)
    34ce:	8b41                	andi	a4,a4,16
    34d0:	e339                	bnez	a4,3516 <_scanf_i+0x224>
    34d2:	000d0023          	sb	zero,0(s10)
    34d6:	4054                	lw	a3,4(s0)
    34d8:	4601                	li	a2,0
    34da:	85a6                	mv	a1,s1
    34dc:	854e                	mv	a0,s3
    34de:	9b02                	jalr	s6
    34e0:	4014                	lw	a3,0(s0)
    34e2:	00092703          	lw	a4,0(s2)
    34e6:	0206f613          	andi	a2,a3,32
    34ea:	ca11                	beqz	a2,34fe <_scanf_i+0x20c>
    34ec:	00470693          	addi	a3,a4,4
    34f0:	00d92023          	sw	a3,0(s2)
    34f4:	4318                	lw	a4,0(a4)
    34f6:	c308                	sw	a0,0(a4)
    34f8:	a821                	j	3510 <_scanf_i+0x21e>
    34fa:	4a81                	li	s5,0
    34fc:	b76d                	j	34a6 <_scanf_i+0x1b4>
    34fe:	0016f593          	andi	a1,a3,1
    3502:	00470613          	addi	a2,a4,4
    3506:	cd95                	beqz	a1,3542 <_scanf_i+0x250>
    3508:	00c92023          	sw	a2,0(s2)
    350c:	4318                	lw	a4,0(a4)
    350e:	a30a                	sh	a0,0(a4)
    3510:	4458                	lw	a4,12(s0)
    3512:	0705                	addi	a4,a4,1
    3514:	c458                	sw	a4,12(s0)
    3516:	481c                	lw	a5,16(s0)
    3518:	409d04b3          	sub	s1,s10,s1
    351c:	94d6                	add	s1,s1,s5
    351e:	94be                	add	s1,s1,a5
    3520:	c804                	sw	s1,16(s0)
    3522:	4501                	li	a0,0
    3524:	40b6                	lw	ra,76(sp)
    3526:	4426                	lw	s0,72(sp)
    3528:	4496                	lw	s1,68(sp)
    352a:	4906                	lw	s2,64(sp)
    352c:	59f2                	lw	s3,60(sp)
    352e:	5a62                	lw	s4,56(sp)
    3530:	5ad2                	lw	s5,52(sp)
    3532:	5b42                	lw	s6,48(sp)
    3534:	5bb2                	lw	s7,44(sp)
    3536:	5c22                	lw	s8,40(sp)
    3538:	5c92                	lw	s9,36(sp)
    353a:	5d02                	lw	s10,32(sp)
    353c:	4df2                	lw	s11,28(sp)
    353e:	6161                	addi	sp,sp,80
    3540:	8082                	ret
    3542:	00c92023          	sw	a2,0(s2)
    3546:	b77d                	j	34f4 <_scanf_i+0x202>

00003548 <__sccl>:
    3548:	219c                	lbu	a5,0(a1)
    354a:	05e00713          	li	a4,94
    354e:	04e78663          	beq	a5,a4,359a <__sccl+0x52>
    3552:	00158713          	addi	a4,a1,1
    3556:	4681                	li	a3,0
    3558:	4601                	li	a2,0
    355a:	10000593          	li	a1,256
    355e:	00c50833          	add	a6,a0,a2
    3562:	00d80023          	sb	a3,0(a6) # 10000 <_data_lma+0xc078>
    3566:	0605                	addi	a2,a2,1
    3568:	feb61be3          	bne	a2,a1,355e <__sccl+0x16>
    356c:	fff70613          	addi	a2,a4,-1
    3570:	c39d                	beqz	a5,3596 <__sccl+0x4e>
    3572:	0016c693          	xori	a3,a3,1
    3576:	02d00893          	li	a7,45
    357a:	05d00813          	li	a6,93
    357e:	00f50633          	add	a2,a0,a5
    3582:	a214                	sb	a3,0(a2)
    3584:	230c                	lbu	a1,0(a4)
    3586:	00170613          	addi	a2,a4,1
    358a:	03158363          	beq	a1,a7,35b0 <__sccl+0x68>
    358e:	01058463          	beq	a1,a6,3596 <__sccl+0x4e>
    3592:	e989                	bnez	a1,35a4 <__sccl+0x5c>
    3594:	863a                	mv	a2,a4
    3596:	8532                	mv	a0,a2
    3598:	8082                	ret
    359a:	00258713          	addi	a4,a1,2
    359e:	319c                	lbu	a5,1(a1)
    35a0:	4685                	li	a3,1
    35a2:	bf5d                	j	3558 <__sccl+0x10>
    35a4:	87ae                	mv	a5,a1
    35a6:	8732                	mv	a4,a2
    35a8:	bfd9                	j	357e <__sccl+0x36>
    35aa:	02d00793          	li	a5,45
    35ae:	bfe5                	j	35a6 <__sccl+0x5e>
    35b0:	330c                	lbu	a1,1(a4)
    35b2:	ff058ce3          	beq	a1,a6,35aa <__sccl+0x62>
    35b6:	fef5cae3          	blt	a1,a5,35aa <__sccl+0x62>
    35ba:	0709                	addi	a4,a4,2
    35bc:	0785                	addi	a5,a5,1
    35be:	00f50633          	add	a2,a0,a5
    35c2:	a214                	sb	a3,0(a2)
    35c4:	feb7cce3          	blt	a5,a1,35bc <__sccl+0x74>
    35c8:	bf75                	j	3584 <__sccl+0x3c>

000035ca <_strtol_l.isra.0>:
    35ca:	7179                	addi	sp,sp,-48
    35cc:	d04a                	sw	s2,32(sp)
    35ce:	ce4e                	sw	s3,28(sp)
    35d0:	d606                	sw	ra,44(sp)
    35d2:	d422                	sw	s0,40(sp)
    35d4:	d226                	sw	s1,36(sp)
    35d6:	89aa                	mv	s3,a0
    35d8:	892e                	mv	s2,a1
    35da:	00190493          	addi	s1,s2,1
    35de:	fff4c403          	lbu	s0,-1(s1)
    35e2:	853a                	mv	a0,a4
    35e4:	c636                	sw	a3,12(sp)
    35e6:	c432                	sw	a2,8(sp)
    35e8:	c22e                	sw	a1,4(sp)
    35ea:	c03a                	sw	a4,0(sp)
    35ec:	2cc5                	jal	38dc <__locale_ctype_ptr_l>
    35ee:	9522                	add	a0,a0,s0
    35f0:	311c                	lbu	a5,1(a0)
    35f2:	4702                	lw	a4,0(sp)
    35f4:	4592                	lw	a1,4(sp)
    35f6:	8ba1                	andi	a5,a5,8
    35f8:	4622                	lw	a2,8(sp)
    35fa:	46b2                	lw	a3,12(sp)
    35fc:	e3d1                	bnez	a5,3680 <_strtol_l.isra.0+0xb6>
    35fe:	02d00793          	li	a5,45
    3602:	08f41163          	bne	s0,a5,3684 <_strtol_l.isra.0+0xba>
    3606:	209c                	lbu	a5,0(s1)
    3608:	4305                	li	t1,1
    360a:	00290493          	addi	s1,s2,2
    360e:	c6e5                	beqz	a3,36f6 <_strtol_l.isra.0+0x12c>
    3610:	4741                	li	a4,16
    3612:	02e69063          	bne	a3,a4,3632 <_strtol_l.isra.0+0x68>
    3616:	03000713          	li	a4,48
    361a:	00e79c63          	bne	a5,a4,3632 <_strtol_l.isra.0+0x68>
    361e:	209c                	lbu	a5,0(s1)
    3620:	05800713          	li	a4,88
    3624:	0df7f793          	andi	a5,a5,223
    3628:	0ce79263          	bne	a5,a4,36ec <_strtol_l.isra.0+0x122>
    362c:	309c                	lbu	a5,1(s1)
    362e:	46c1                	li	a3,16
    3630:	0489                	addi	s1,s1,2
    3632:	800008b7          	lui	a7,0x80000
    3636:	00031463          	bnez	t1,363e <_strtol_l.isra.0+0x74>
    363a:	fff8c893          	not	a7,a7
    363e:	02d8ff33          	remu	t5,a7,a3
    3642:	4801                	li	a6,0
    3644:	4501                	li	a0,0
    3646:	4fa5                	li	t6,9
    3648:	4ee5                	li	t4,25
    364a:	52fd                	li	t0,-1
    364c:	02d8de33          	divu	t3,a7,a3
    3650:	fd078713          	addi	a4,a5,-48
    3654:	04efe363          	bltu	t6,a4,369a <_strtol_l.isra.0+0xd0>
    3658:	87ba                	mv	a5,a4
    365a:	04d7de63          	bge	a5,a3,36b6 <_strtol_l.isra.0+0xec>
    365e:	00580d63          	beq	a6,t0,3678 <_strtol_l.isra.0+0xae>
    3662:	587d                	li	a6,-1
    3664:	00ae6a63          	bltu	t3,a0,3678 <_strtol_l.isra.0+0xae>
    3668:	00ae1463          	bne	t3,a0,3670 <_strtol_l.isra.0+0xa6>
    366c:	00ff4663          	blt	t5,a5,3678 <_strtol_l.isra.0+0xae>
    3670:	4805                	li	a6,1
    3672:	02a68533          	mul	a0,a3,a0
    3676:	953e                	add	a0,a0,a5
    3678:	0485                	addi	s1,s1,1
    367a:	fff4c783          	lbu	a5,-1(s1)
    367e:	bfc9                	j	3650 <_strtol_l.isra.0+0x86>
    3680:	8926                	mv	s2,s1
    3682:	bfa1                	j	35da <_strtol_l.isra.0+0x10>
    3684:	02b00793          	li	a5,43
    3688:	00f40563          	beq	s0,a5,3692 <_strtol_l.isra.0+0xc8>
    368c:	87a2                	mv	a5,s0
    368e:	4301                	li	t1,0
    3690:	bfbd                	j	360e <_strtol_l.isra.0+0x44>
    3692:	209c                	lbu	a5,0(s1)
    3694:	00290493          	addi	s1,s2,2
    3698:	bfdd                	j	368e <_strtol_l.isra.0+0xc4>
    369a:	fbf78713          	addi	a4,a5,-65
    369e:	00eee563          	bltu	t4,a4,36a8 <_strtol_l.isra.0+0xde>
    36a2:	fc978793          	addi	a5,a5,-55
    36a6:	bf55                	j	365a <_strtol_l.isra.0+0x90>
    36a8:	f9f78713          	addi	a4,a5,-97
    36ac:	00eee563          	bltu	t4,a4,36b6 <_strtol_l.isra.0+0xec>
    36b0:	fa978793          	addi	a5,a5,-87
    36b4:	b75d                	j	365a <_strtol_l.isra.0+0x90>
    36b6:	57fd                	li	a5,-1
    36b8:	00f81f63          	bne	a6,a5,36d6 <_strtol_l.isra.0+0x10c>
    36bc:	02200793          	li	a5,34
    36c0:	00f9a023          	sw	a5,0(s3)
    36c4:	8546                	mv	a0,a7
    36c6:	ee19                	bnez	a2,36e4 <_strtol_l.isra.0+0x11a>
    36c8:	50b2                	lw	ra,44(sp)
    36ca:	5422                	lw	s0,40(sp)
    36cc:	5492                	lw	s1,36(sp)
    36ce:	5902                	lw	s2,32(sp)
    36d0:	49f2                	lw	s3,28(sp)
    36d2:	6145                	addi	sp,sp,48
    36d4:	8082                	ret
    36d6:	00030463          	beqz	t1,36de <_strtol_l.isra.0+0x114>
    36da:	40a00533          	neg	a0,a0
    36de:	d66d                	beqz	a2,36c8 <_strtol_l.isra.0+0xfe>
    36e0:	00080463          	beqz	a6,36e8 <_strtol_l.isra.0+0x11e>
    36e4:	fff48593          	addi	a1,s1,-1
    36e8:	c20c                	sw	a1,0(a2)
    36ea:	bff9                	j	36c8 <_strtol_l.isra.0+0xfe>
    36ec:	03000793          	li	a5,48
    36f0:	f2a9                	bnez	a3,3632 <_strtol_l.isra.0+0x68>
    36f2:	46a1                	li	a3,8
    36f4:	bf3d                	j	3632 <_strtol_l.isra.0+0x68>
    36f6:	03000713          	li	a4,48
    36fa:	f2e782e3          	beq	a5,a4,361e <_strtol_l.isra.0+0x54>
    36fe:	46a9                	li	a3,10
    3700:	bf0d                	j	3632 <_strtol_l.isra.0+0x68>

00003702 <_strtol_r>:
    3702:	82c18793          	addi	a5,gp,-2004 # 200002cc <_impure_ptr>
    3706:	439c                	lw	a5,0(a5)
    3708:	5398                	lw	a4,32(a5)
    370a:	e709                	bnez	a4,3714 <_strtol_r+0x12>
    370c:	1fffd717          	auipc	a4,0x1fffd
    3710:	a2870713          	addi	a4,a4,-1496 # 20000134 <__global_locale>
    3714:	eb7ff06f          	j	35ca <_strtol_l.isra.0>

00003718 <_strtoul_l.isra.0>:
    3718:	7179                	addi	sp,sp,-48
    371a:	d04a                	sw	s2,32(sp)
    371c:	ce4e                	sw	s3,28(sp)
    371e:	d606                	sw	ra,44(sp)
    3720:	d422                	sw	s0,40(sp)
    3722:	d226                	sw	s1,36(sp)
    3724:	89aa                	mv	s3,a0
    3726:	892e                	mv	s2,a1
    3728:	00190493          	addi	s1,s2,1
    372c:	fff4c403          	lbu	s0,-1(s1)
    3730:	853a                	mv	a0,a4
    3732:	c636                	sw	a3,12(sp)
    3734:	c432                	sw	a2,8(sp)
    3736:	c22e                	sw	a1,4(sp)
    3738:	c03a                	sw	a4,0(sp)
    373a:	224d                	jal	38dc <__locale_ctype_ptr_l>
    373c:	9522                	add	a0,a0,s0
    373e:	311c                	lbu	a5,1(a0)
    3740:	4702                	lw	a4,0(sp)
    3742:	4592                	lw	a1,4(sp)
    3744:	8ba1                	andi	a5,a5,8
    3746:	4622                	lw	a2,8(sp)
    3748:	46b2                	lw	a3,12(sp)
    374a:	efa5                	bnez	a5,37c2 <_strtoul_l.isra.0+0xaa>
    374c:	02d00793          	li	a5,45
    3750:	06f41b63          	bne	s0,a5,37c6 <_strtoul_l.isra.0+0xae>
    3754:	209c                	lbu	a5,0(s1)
    3756:	4305                	li	t1,1
    3758:	00290493          	addi	s1,s2,2
    375c:	cef9                	beqz	a3,383a <_strtoul_l.isra.0+0x122>
    375e:	4741                	li	a4,16
    3760:	02e69063          	bne	a3,a4,3780 <_strtoul_l.isra.0+0x68>
    3764:	03000713          	li	a4,48
    3768:	00e79c63          	bne	a5,a4,3780 <_strtoul_l.isra.0+0x68>
    376c:	209c                	lbu	a5,0(s1)
    376e:	05800713          	li	a4,88
    3772:	0df7f793          	andi	a5,a5,223
    3776:	0ae79d63          	bne	a5,a4,3830 <_strtoul_l.isra.0+0x118>
    377a:	309c                	lbu	a5,1(s1)
    377c:	46c1                	li	a3,16
    377e:	0489                	addi	s1,s1,2
    3780:	577d                	li	a4,-1
    3782:	02d75e33          	divu	t3,a4,a3
    3786:	4801                	li	a6,0
    3788:	4501                	li	a0,0
    378a:	4f25                	li	t5,9
    378c:	4ee5                	li	t4,25
    378e:	02d778b3          	remu	a7,a4,a3
    3792:	fd078713          	addi	a4,a5,-48
    3796:	04ef6363          	bltu	t5,a4,37dc <_strtoul_l.isra.0+0xc4>
    379a:	87ba                	mv	a5,a4
    379c:	06d7d063          	bge	a5,a3,37fc <_strtoul_l.isra.0+0xe4>
    37a0:	04084c63          	bltz	a6,37f8 <_strtoul_l.isra.0+0xe0>
    37a4:	587d                	li	a6,-1
    37a6:	00ae6a63          	bltu	t3,a0,37ba <_strtoul_l.isra.0+0xa2>
    37aa:	00ae1463          	bne	t3,a0,37b2 <_strtoul_l.isra.0+0x9a>
    37ae:	00f8c663          	blt	a7,a5,37ba <_strtoul_l.isra.0+0xa2>
    37b2:	4805                	li	a6,1
    37b4:	02a68533          	mul	a0,a3,a0
    37b8:	953e                	add	a0,a0,a5
    37ba:	0485                	addi	s1,s1,1
    37bc:	fff4c783          	lbu	a5,-1(s1)
    37c0:	bfc9                	j	3792 <_strtoul_l.isra.0+0x7a>
    37c2:	8926                	mv	s2,s1
    37c4:	b795                	j	3728 <_strtoul_l.isra.0+0x10>
    37c6:	02b00793          	li	a5,43
    37ca:	00f40563          	beq	s0,a5,37d4 <_strtoul_l.isra.0+0xbc>
    37ce:	87a2                	mv	a5,s0
    37d0:	4301                	li	t1,0
    37d2:	b769                	j	375c <_strtoul_l.isra.0+0x44>
    37d4:	209c                	lbu	a5,0(s1)
    37d6:	00290493          	addi	s1,s2,2
    37da:	bfdd                	j	37d0 <_strtoul_l.isra.0+0xb8>
    37dc:	fbf78713          	addi	a4,a5,-65
    37e0:	00eee563          	bltu	t4,a4,37ea <_strtoul_l.isra.0+0xd2>
    37e4:	fc978793          	addi	a5,a5,-55
    37e8:	bf55                	j	379c <_strtoul_l.isra.0+0x84>
    37ea:	f9f78713          	addi	a4,a5,-97
    37ee:	00eee763          	bltu	t4,a4,37fc <_strtoul_l.isra.0+0xe4>
    37f2:	fa978793          	addi	a5,a5,-87
    37f6:	b75d                	j	379c <_strtoul_l.isra.0+0x84>
    37f8:	587d                	li	a6,-1
    37fa:	b7c1                	j	37ba <_strtoul_l.isra.0+0xa2>
    37fc:	00085f63          	bgez	a6,381a <_strtoul_l.isra.0+0x102>
    3800:	02200793          	li	a5,34
    3804:	00f9a023          	sw	a5,0(s3)
    3808:	557d                	li	a0,-1
    380a:	ee19                	bnez	a2,3828 <_strtoul_l.isra.0+0x110>
    380c:	50b2                	lw	ra,44(sp)
    380e:	5422                	lw	s0,40(sp)
    3810:	5492                	lw	s1,36(sp)
    3812:	5902                	lw	s2,32(sp)
    3814:	49f2                	lw	s3,28(sp)
    3816:	6145                	addi	sp,sp,48
    3818:	8082                	ret
    381a:	00030463          	beqz	t1,3822 <_strtoul_l.isra.0+0x10a>
    381e:	40a00533          	neg	a0,a0
    3822:	d66d                	beqz	a2,380c <_strtoul_l.isra.0+0xf4>
    3824:	00080463          	beqz	a6,382c <_strtoul_l.isra.0+0x114>
    3828:	fff48593          	addi	a1,s1,-1
    382c:	c20c                	sw	a1,0(a2)
    382e:	bff9                	j	380c <_strtoul_l.isra.0+0xf4>
    3830:	03000793          	li	a5,48
    3834:	f6b1                	bnez	a3,3780 <_strtoul_l.isra.0+0x68>
    3836:	46a1                	li	a3,8
    3838:	b7a1                	j	3780 <_strtoul_l.isra.0+0x68>
    383a:	03000713          	li	a4,48
    383e:	f2e787e3          	beq	a5,a4,376c <_strtoul_l.isra.0+0x54>
    3842:	46a9                	li	a3,10
    3844:	bf35                	j	3780 <_strtoul_l.isra.0+0x68>

00003846 <_strtoul_r>:
    3846:	82c18793          	addi	a5,gp,-2004 # 200002cc <_impure_ptr>
    384a:	439c                	lw	a5,0(a5)
    384c:	5398                	lw	a4,32(a5)
    384e:	e709                	bnez	a4,3858 <_strtoul_r+0x12>
    3850:	1fffd717          	auipc	a4,0x1fffd
    3854:	8e470713          	addi	a4,a4,-1820 # 20000134 <__global_locale>
    3858:	ec1ff06f          	j	3718 <_strtoul_l.isra.0>

0000385c <__submore>:
    385c:	1101                	addi	sp,sp,-32
    385e:	cc22                	sw	s0,24(sp)
    3860:	842e                	mv	s0,a1
    3862:	59cc                	lw	a1,52(a1)
    3864:	ce06                	sw	ra,28(sp)
    3866:	ca26                	sw	s1,20(sp)
    3868:	c84a                	sw	s2,16(sp)
    386a:	c64e                	sw	s3,12(sp)
    386c:	c452                	sw	s4,8(sp)
    386e:	04440793          	addi	a5,s0,68
    3872:	04f59163          	bne	a1,a5,38b4 <__submore+0x58>
    3876:	40000593          	li	a1,1024
    387a:	249d                	jal	3ae0 <_malloc_r>
    387c:	e911                	bnez	a0,3890 <__submore+0x34>
    387e:	557d                	li	a0,-1
    3880:	40f2                	lw	ra,28(sp)
    3882:	4462                	lw	s0,24(sp)
    3884:	44d2                	lw	s1,20(sp)
    3886:	4942                	lw	s2,16(sp)
    3888:	49b2                	lw	s3,12(sp)
    388a:	4a22                	lw	s4,8(sp)
    388c:	6105                	addi	sp,sp,32
    388e:	8082                	ret
    3890:	40000793          	li	a5,1024
    3894:	dc1c                	sw	a5,56(s0)
    3896:	04644783          	lbu	a5,70(s0)
    389a:	d848                	sw	a0,52(s0)
    389c:	3fd50513          	addi	a0,a0,1021
    38a0:	a13c                	sb	a5,2(a0)
    38a2:	04544783          	lbu	a5,69(s0)
    38a6:	b11c                	sb	a5,1(a0)
    38a8:	04444783          	lbu	a5,68(s0)
    38ac:	a11c                	sb	a5,0(a0)
    38ae:	c008                	sw	a0,0(s0)
    38b0:	4501                	li	a0,0
    38b2:	b7f9                	j	3880 <__submore+0x24>
    38b4:	03842903          	lw	s2,56(s0)
    38b8:	00191993          	slli	s3,s2,0x1
    38bc:	864e                	mv	a2,s3
    38be:	2cc5                	jal	3bae <_realloc_r>
    38c0:	84aa                	mv	s1,a0
    38c2:	dd55                	beqz	a0,387e <__submore+0x22>
    38c4:	01250a33          	add	s4,a0,s2
    38c8:	85aa                	mv	a1,a0
    38ca:	864a                	mv	a2,s2
    38cc:	8552                	mv	a0,s4
    38ce:	289d                	jal	3944 <memcpy>
    38d0:	01442023          	sw	s4,0(s0)
    38d4:	d844                	sw	s1,52(s0)
    38d6:	03342c23          	sw	s3,56(s0)
    38da:	bfd9                	j	38b0 <__submore+0x54>

000038dc <__locale_ctype_ptr_l>:
    38dc:	0ec52503          	lw	a0,236(a0)
    38e0:	8082                	ret

000038e2 <__locale_ctype_ptr>:
    38e2:	82c18793          	addi	a5,gp,-2004 # 200002cc <_impure_ptr>
    38e6:	439c                	lw	a5,0(a5)
    38e8:	539c                	lw	a5,32(a5)
    38ea:	e789                	bnez	a5,38f4 <__locale_ctype_ptr+0x12>
    38ec:	1fffd797          	auipc	a5,0x1fffd
    38f0:	84878793          	addi	a5,a5,-1976 # 20000134 <__global_locale>
    38f4:	0ec7a503          	lw	a0,236(a5)
    38f8:	8082                	ret

000038fa <__ascii_mbtowc>:
    38fa:	ed91                	bnez	a1,3916 <__ascii_mbtowc+0x1c>
    38fc:	1141                	addi	sp,sp,-16
    38fe:	006c                	addi	a1,sp,12
    3900:	4501                	li	a0,0
    3902:	ca01                	beqz	a2,3912 <__ascii_mbtowc+0x18>
    3904:	5579                	li	a0,-2
    3906:	c691                	beqz	a3,3912 <__ascii_mbtowc+0x18>
    3908:	221c                	lbu	a5,0(a2)
    390a:	c19c                	sw	a5,0(a1)
    390c:	2208                	lbu	a0,0(a2)
    390e:	00a03533          	snez	a0,a0
    3912:	0141                	addi	sp,sp,16
    3914:	8082                	ret
    3916:	4501                	li	a0,0
    3918:	ca09                	beqz	a2,392a <__ascii_mbtowc+0x30>
    391a:	5579                	li	a0,-2
    391c:	c699                	beqz	a3,392a <__ascii_mbtowc+0x30>
    391e:	221c                	lbu	a5,0(a2)
    3920:	c19c                	sw	a5,0(a1)
    3922:	2208                	lbu	a0,0(a2)
    3924:	00a03533          	snez	a0,a0
    3928:	8082                	ret
    392a:	8082                	ret

0000392c <memchr>:
    392c:	0ff5f593          	andi	a1,a1,255
    3930:	962a                	add	a2,a2,a0
    3932:	00c51463          	bne	a0,a2,393a <memchr+0xe>
    3936:	4501                	li	a0,0
    3938:	8082                	ret
    393a:	211c                	lbu	a5,0(a0)
    393c:	feb78ee3          	beq	a5,a1,3938 <memchr+0xc>
    3940:	0505                	addi	a0,a0,1
    3942:	bfc5                	j	3932 <memchr+0x6>

00003944 <memcpy>:
    3944:	00a5c7b3          	xor	a5,a1,a0
    3948:	8b8d                	andi	a5,a5,3
    394a:	00c50733          	add	a4,a0,a2
    394e:	e781                	bnez	a5,3956 <memcpy+0x12>
    3950:	478d                	li	a5,3
    3952:	00c7ed63          	bltu	a5,a2,396c <memcpy+0x28>
    3956:	87aa                	mv	a5,a0
    3958:	08e57e63          	bgeu	a0,a4,39f4 <memcpy+0xb0>
    395c:	2194                	lbu	a3,0(a1)
    395e:	0785                	addi	a5,a5,1
    3960:	0585                	addi	a1,a1,1
    3962:	fed78fa3          	sb	a3,-1(a5)
    3966:	fee7ebe3          	bltu	a5,a4,395c <memcpy+0x18>
    396a:	8082                	ret
    396c:	00357693          	andi	a3,a0,3
    3970:	87aa                	mv	a5,a0
    3972:	ca89                	beqz	a3,3984 <memcpy+0x40>
    3974:	2194                	lbu	a3,0(a1)
    3976:	0785                	addi	a5,a5,1
    3978:	0585                	addi	a1,a1,1
    397a:	fed78fa3          	sb	a3,-1(a5)
    397e:	0037f693          	andi	a3,a5,3
    3982:	bfc5                	j	3972 <memcpy+0x2e>
    3984:	ffc77693          	andi	a3,a4,-4
    3988:	fe068613          	addi	a2,a3,-32
    398c:	06c7f063          	bgeu	a5,a2,39ec <memcpy+0xa8>
    3990:	0005a383          	lw	t2,0(a1)
    3994:	0045a283          	lw	t0,4(a1)
    3998:	0085af83          	lw	t6,8(a1)
    399c:	00c5af03          	lw	t5,12(a1)
    39a0:	0105ae83          	lw	t4,16(a1)
    39a4:	0145ae03          	lw	t3,20(a1)
    39a8:	0185a303          	lw	t1,24(a1)
    39ac:	01c5a883          	lw	a7,28(a1)
    39b0:	02458593          	addi	a1,a1,36
    39b4:	0077a023          	sw	t2,0(a5)
    39b8:	ffc5a803          	lw	a6,-4(a1)
    39bc:	0057a223          	sw	t0,4(a5)
    39c0:	01f7a423          	sw	t6,8(a5)
    39c4:	01e7a623          	sw	t5,12(a5)
    39c8:	01d7a823          	sw	t4,16(a5)
    39cc:	01c7aa23          	sw	t3,20(a5)
    39d0:	0067ac23          	sw	t1,24(a5)
    39d4:	0117ae23          	sw	a7,28(a5)
    39d8:	02478793          	addi	a5,a5,36
    39dc:	ff07ae23          	sw	a6,-4(a5)
    39e0:	b775                	j	398c <memcpy+0x48>
    39e2:	4190                	lw	a2,0(a1)
    39e4:	0791                	addi	a5,a5,4
    39e6:	0591                	addi	a1,a1,4
    39e8:	fec7ae23          	sw	a2,-4(a5)
    39ec:	fed7ebe3          	bltu	a5,a3,39e2 <memcpy+0x9e>
    39f0:	f6e7e6e3          	bltu	a5,a4,395c <memcpy+0x18>
    39f4:	8082                	ret

000039f6 <memmove>:
    39f6:	04a5f163          	bgeu	a1,a0,3a38 <memmove+0x42>
    39fa:	00c586b3          	add	a3,a1,a2
    39fe:	02d57d63          	bgeu	a0,a3,3a38 <memmove+0x42>
    3a02:	fff64593          	not	a1,a2
    3a06:	4781                	li	a5,0
    3a08:	17fd                	addi	a5,a5,-1
    3a0a:	00f59363          	bne	a1,a5,3a10 <memmove+0x1a>
    3a0e:	8082                	ret
    3a10:	00f68733          	add	a4,a3,a5
    3a14:	00074803          	lbu	a6,0(a4)
    3a18:	00c78733          	add	a4,a5,a2
    3a1c:	972a                	add	a4,a4,a0
    3a1e:	01070023          	sb	a6,0(a4)
    3a22:	b7dd                	j	3a08 <memmove+0x12>
    3a24:	00f58733          	add	a4,a1,a5
    3a28:	2314                	lbu	a3,0(a4)
    3a2a:	00f50733          	add	a4,a0,a5
    3a2e:	0785                	addi	a5,a5,1
    3a30:	a314                	sb	a3,0(a4)
    3a32:	fef619e3          	bne	a2,a5,3a24 <memmove+0x2e>
    3a36:	8082                	ret
    3a38:	4781                	li	a5,0
    3a3a:	bfe5                	j	3a32 <memmove+0x3c>

00003a3c <_free_r>:
    3a3c:	c1cd                	beqz	a1,3ade <_free_r+0xa2>
    3a3e:	ffc5a783          	lw	a5,-4(a1)
    3a42:	1141                	addi	sp,sp,-16
    3a44:	c422                	sw	s0,8(sp)
    3a46:	c606                	sw	ra,12(sp)
    3a48:	c226                	sw	s1,4(sp)
    3a4a:	ffc58413          	addi	s0,a1,-4
    3a4e:	0007d363          	bgez	a5,3a54 <_free_r+0x18>
    3a52:	943e                	add	s0,s0,a5
    3a54:	84aa                	mv	s1,a0
    3a56:	2ae5                	jal	3c4e <__malloc_lock>
    3a58:	88418793          	addi	a5,gp,-1916 # 20000324 <__malloc_free_list>
    3a5c:	439c                	lw	a5,0(a5)
    3a5e:	eb99                	bnez	a5,3a74 <_free_r+0x38>
    3a60:	00042223          	sw	zero,4(s0)
    3a64:	8881a223          	sw	s0,-1916(gp) # 20000324 <__malloc_free_list>
    3a68:	4422                	lw	s0,8(sp)
    3a6a:	40b2                	lw	ra,12(sp)
    3a6c:	8526                	mv	a0,s1
    3a6e:	4492                	lw	s1,4(sp)
    3a70:	0141                	addi	sp,sp,16
    3a72:	aaf9                	j	3c50 <__malloc_unlock>
    3a74:	00f47e63          	bgeu	s0,a5,3a90 <_free_r+0x54>
    3a78:	4014                	lw	a3,0(s0)
    3a7a:	00d40733          	add	a4,s0,a3
    3a7e:	00e79663          	bne	a5,a4,3a8a <_free_r+0x4e>
    3a82:	4398                	lw	a4,0(a5)
    3a84:	43dc                	lw	a5,4(a5)
    3a86:	9736                	add	a4,a4,a3
    3a88:	c018                	sw	a4,0(s0)
    3a8a:	c05c                	sw	a5,4(s0)
    3a8c:	bfe1                	j	3a64 <_free_r+0x28>
    3a8e:	87ba                	mv	a5,a4
    3a90:	43d8                	lw	a4,4(a5)
    3a92:	c319                	beqz	a4,3a98 <_free_r+0x5c>
    3a94:	fee47de3          	bgeu	s0,a4,3a8e <_free_r+0x52>
    3a98:	4394                	lw	a3,0(a5)
    3a9a:	00d78633          	add	a2,a5,a3
    3a9e:	00861f63          	bne	a2,s0,3abc <_free_r+0x80>
    3aa2:	4010                	lw	a2,0(s0)
    3aa4:	96b2                	add	a3,a3,a2
    3aa6:	c394                	sw	a3,0(a5)
    3aa8:	00d78633          	add	a2,a5,a3
    3aac:	fac71ee3          	bne	a4,a2,3a68 <_free_r+0x2c>
    3ab0:	4310                	lw	a2,0(a4)
    3ab2:	4358                	lw	a4,4(a4)
    3ab4:	96b2                	add	a3,a3,a2
    3ab6:	c394                	sw	a3,0(a5)
    3ab8:	c3d8                	sw	a4,4(a5)
    3aba:	b77d                	j	3a68 <_free_r+0x2c>
    3abc:	00c47563          	bgeu	s0,a2,3ac6 <_free_r+0x8a>
    3ac0:	47b1                	li	a5,12
    3ac2:	c09c                	sw	a5,0(s1)
    3ac4:	b755                	j	3a68 <_free_r+0x2c>
    3ac6:	4010                	lw	a2,0(s0)
    3ac8:	00c406b3          	add	a3,s0,a2
    3acc:	00d71663          	bne	a4,a3,3ad8 <_free_r+0x9c>
    3ad0:	4314                	lw	a3,0(a4)
    3ad2:	4358                	lw	a4,4(a4)
    3ad4:	96b2                	add	a3,a3,a2
    3ad6:	c014                	sw	a3,0(s0)
    3ad8:	c058                	sw	a4,4(s0)
    3ada:	c3c0                	sw	s0,4(a5)
    3adc:	b771                	j	3a68 <_free_r+0x2c>
    3ade:	8082                	ret

00003ae0 <_malloc_r>:
    3ae0:	1101                	addi	sp,sp,-32
    3ae2:	ca26                	sw	s1,20(sp)
    3ae4:	00358493          	addi	s1,a1,3
    3ae8:	98f1                	andi	s1,s1,-4
    3aea:	ce06                	sw	ra,28(sp)
    3aec:	cc22                	sw	s0,24(sp)
    3aee:	c84a                	sw	s2,16(sp)
    3af0:	c64e                	sw	s3,12(sp)
    3af2:	04a1                	addi	s1,s1,8
    3af4:	47b1                	li	a5,12
    3af6:	04f4f163          	bgeu	s1,a5,3b38 <_malloc_r+0x58>
    3afa:	44b1                	li	s1,12
    3afc:	04b4e063          	bltu	s1,a1,3b3c <_malloc_r+0x5c>
    3b00:	892a                	mv	s2,a0
    3b02:	22b1                	jal	3c4e <__malloc_lock>
    3b04:	88418793          	addi	a5,gp,-1916 # 20000324 <__malloc_free_list>
    3b08:	4398                	lw	a4,0(a5)
    3b0a:	843a                	mv	s0,a4
    3b0c:	e031                	bnez	s0,3b50 <_malloc_r+0x70>
    3b0e:	88818793          	addi	a5,gp,-1912 # 20000328 <__malloc_sbrk_start>
    3b12:	439c                	lw	a5,0(a5)
    3b14:	e791                	bnez	a5,3b20 <_malloc_r+0x40>
    3b16:	4581                	li	a1,0
    3b18:	854a                	mv	a0,s2
    3b1a:	20f5                	jal	3c06 <_sbrk_r>
    3b1c:	88a1a423          	sw	a0,-1912(gp) # 20000328 <__malloc_sbrk_start>
    3b20:	85a6                	mv	a1,s1
    3b22:	854a                	mv	a0,s2
    3b24:	20cd                	jal	3c06 <_sbrk_r>
    3b26:	59fd                	li	s3,-1
    3b28:	07351763          	bne	a0,s3,3b96 <_malloc_r+0xb6>
    3b2c:	47b1                	li	a5,12
    3b2e:	00f92023          	sw	a5,0(s2)
    3b32:	854a                	mv	a0,s2
    3b34:	2a31                	jal	3c50 <__malloc_unlock>
    3b36:	a029                	j	3b40 <_malloc_r+0x60>
    3b38:	fc04d2e3          	bgez	s1,3afc <_malloc_r+0x1c>
    3b3c:	47b1                	li	a5,12
    3b3e:	c11c                	sw	a5,0(a0)
    3b40:	4501                	li	a0,0
    3b42:	40f2                	lw	ra,28(sp)
    3b44:	4462                	lw	s0,24(sp)
    3b46:	44d2                	lw	s1,20(sp)
    3b48:	4942                	lw	s2,16(sp)
    3b4a:	49b2                	lw	s3,12(sp)
    3b4c:	6105                	addi	sp,sp,32
    3b4e:	8082                	ret
    3b50:	401c                	lw	a5,0(s0)
    3b52:	8f85                	sub	a5,a5,s1
    3b54:	0207ce63          	bltz	a5,3b90 <_malloc_r+0xb0>
    3b58:	46ad                	li	a3,11
    3b5a:	00f6f663          	bgeu	a3,a5,3b66 <_malloc_r+0x86>
    3b5e:	c01c                	sw	a5,0(s0)
    3b60:	943e                	add	s0,s0,a5
    3b62:	c004                	sw	s1,0(s0)
    3b64:	a031                	j	3b70 <_malloc_r+0x90>
    3b66:	405c                	lw	a5,4(s0)
    3b68:	02871263          	bne	a4,s0,3b8c <_malloc_r+0xac>
    3b6c:	88f1a223          	sw	a5,-1916(gp) # 20000324 <__malloc_free_list>
    3b70:	854a                	mv	a0,s2
    3b72:	28f9                	jal	3c50 <__malloc_unlock>
    3b74:	00b40513          	addi	a0,s0,11
    3b78:	00440793          	addi	a5,s0,4
    3b7c:	9961                	andi	a0,a0,-8
    3b7e:	40f50733          	sub	a4,a0,a5
    3b82:	d361                	beqz	a4,3b42 <_malloc_r+0x62>
    3b84:	943a                	add	s0,s0,a4
    3b86:	8f89                	sub	a5,a5,a0
    3b88:	c01c                	sw	a5,0(s0)
    3b8a:	bf65                	j	3b42 <_malloc_r+0x62>
    3b8c:	c35c                	sw	a5,4(a4)
    3b8e:	b7cd                	j	3b70 <_malloc_r+0x90>
    3b90:	8722                	mv	a4,s0
    3b92:	4040                	lw	s0,4(s0)
    3b94:	bfa5                	j	3b0c <_malloc_r+0x2c>
    3b96:	00350413          	addi	s0,a0,3
    3b9a:	9871                	andi	s0,s0,-4
    3b9c:	fc8503e3          	beq	a0,s0,3b62 <_malloc_r+0x82>
    3ba0:	40a405b3          	sub	a1,s0,a0
    3ba4:	854a                	mv	a0,s2
    3ba6:	2085                	jal	3c06 <_sbrk_r>
    3ba8:	fb351de3          	bne	a0,s3,3b62 <_malloc_r+0x82>
    3bac:	b741                	j	3b2c <_malloc_r+0x4c>

00003bae <_realloc_r>:
    3bae:	e581                	bnez	a1,3bb6 <_realloc_r+0x8>
    3bb0:	85b2                	mv	a1,a2
    3bb2:	f2fff06f          	j	3ae0 <_malloc_r>
    3bb6:	1101                	addi	sp,sp,-32
    3bb8:	cc22                	sw	s0,24(sp)
    3bba:	ce06                	sw	ra,28(sp)
    3bbc:	ca26                	sw	s1,20(sp)
    3bbe:	c84a                	sw	s2,16(sp)
    3bc0:	c64e                	sw	s3,12(sp)
    3bc2:	8432                	mv	s0,a2
    3bc4:	ee01                	bnez	a2,3bdc <_realloc_r+0x2e>
    3bc6:	e77ff0ef          	jal	ra,3a3c <_free_r>
    3bca:	4901                	li	s2,0
    3bcc:	40f2                	lw	ra,28(sp)
    3bce:	4462                	lw	s0,24(sp)
    3bd0:	854a                	mv	a0,s2
    3bd2:	44d2                	lw	s1,20(sp)
    3bd4:	4942                	lw	s2,16(sp)
    3bd6:	49b2                	lw	s3,12(sp)
    3bd8:	6105                	addi	sp,sp,32
    3bda:	8082                	ret
    3bdc:	84ae                	mv	s1,a1
    3bde:	89aa                	mv	s3,a0
    3be0:	288d                	jal	3c52 <_malloc_usable_size_r>
    3be2:	8926                	mv	s2,s1
    3be4:	fe8574e3          	bgeu	a0,s0,3bcc <_realloc_r+0x1e>
    3be8:	85a2                	mv	a1,s0
    3bea:	854e                	mv	a0,s3
    3bec:	ef5ff0ef          	jal	ra,3ae0 <_malloc_r>
    3bf0:	892a                	mv	s2,a0
    3bf2:	dd69                	beqz	a0,3bcc <_realloc_r+0x1e>
    3bf4:	85a6                	mv	a1,s1
    3bf6:	8622                	mv	a2,s0
    3bf8:	d4dff0ef          	jal	ra,3944 <memcpy>
    3bfc:	85a6                	mv	a1,s1
    3bfe:	854e                	mv	a0,s3
    3c00:	e3dff0ef          	jal	ra,3a3c <_free_r>
    3c04:	b7e1                	j	3bcc <_realloc_r+0x1e>

00003c06 <_sbrk_r>:
    3c06:	1141                	addi	sp,sp,-16
    3c08:	c422                	sw	s0,8(sp)
    3c0a:	842a                	mv	s0,a0
    3c0c:	852e                	mv	a0,a1
    3c0e:	a401aa23          	sw	zero,-1452(gp) # 200004f4 <errno>
    3c12:	c606                	sw	ra,12(sp)
    3c14:	9b3fe0ef          	jal	ra,25c6 <_sbrk>
    3c18:	57fd                	li	a5,-1
    3c1a:	00f51763          	bne	a0,a5,3c28 <_sbrk_r+0x22>
    3c1e:	a5418793          	addi	a5,gp,-1452 # 200004f4 <errno>
    3c22:	439c                	lw	a5,0(a5)
    3c24:	c391                	beqz	a5,3c28 <_sbrk_r+0x22>
    3c26:	c01c                	sw	a5,0(s0)
    3c28:	40b2                	lw	ra,12(sp)
    3c2a:	4422                	lw	s0,8(sp)
    3c2c:	0141                	addi	sp,sp,16
    3c2e:	8082                	ret

00003c30 <__ascii_wctomb>:
    3c30:	cd89                	beqz	a1,3c4a <__ascii_wctomb+0x1a>
    3c32:	0ff00793          	li	a5,255
    3c36:	00c7f763          	bgeu	a5,a2,3c44 <__ascii_wctomb+0x14>
    3c3a:	08a00793          	li	a5,138
    3c3e:	c11c                	sw	a5,0(a0)
    3c40:	557d                	li	a0,-1
    3c42:	8082                	ret
    3c44:	a190                	sb	a2,0(a1)
    3c46:	4505                	li	a0,1
    3c48:	8082                	ret
    3c4a:	4501                	li	a0,0
    3c4c:	8082                	ret

00003c4e <__malloc_lock>:
    3c4e:	8082                	ret

00003c50 <__malloc_unlock>:
    3c50:	8082                	ret

00003c52 <_malloc_usable_size_r>:
    3c52:	ffc5a783          	lw	a5,-4(a1)
    3c56:	ffc78513          	addi	a0,a5,-4
    3c5a:	0007d563          	bgez	a5,3c64 <_malloc_usable_size_r+0x12>
    3c5e:	95aa                	add	a1,a1,a0
    3c60:	419c                	lw	a5,0(a1)
    3c62:	953e                	add	a0,a0,a5
    3c64:	8082                	ret
	...

00003c68 <USBD_ConfigDescriptor>:
    3c68:	0209 0043 0102 8000 0932 0004 0100 0202     ..C.....2.......
    3c78:	0001 2405 1000 0501 0124 0100 2404 0202     ...$....$....$..
    3c88:	2405 0006 0701 8105 4003 0100 0409 0001     .$.......@......
    3c98:	0a02 0000 0700 0205 4002 0000 0507 0283     .........@......
    3ca8:	0040 0000                                   @...

00003cac <USBD_DeviceDescriptor>:
    3cac:	0112 0110 0002 4000 1a86 fe0c 0100 0201     .......@........
    3cbc:	0100 0000                                   ....

00003cc0 <USBD_StringProduct>:
    3cc0:	0316 004c 0075 0064 006b 006f 0000 0000     ..L.u.d.k.o.....
	...

00003cd8 <USBD_StringVendor>:
    3cd8:	030e 0042 0065 0043 0000 0000 0000 0000     ..B.e.C.........
    3ce8:	1b62 0000 1b74 0000 1b84 0000 1b8c 0000     b...t...........
    3cf8:	1ba2 0000 1bc0 0000 6425 252d 2d64 6425     ........%d-%d-%d
    3d08:	2020 3025 6432 253a 3230 3a64 3025 6432       %02d:%02d:%02d
    3d18:	0a0d 0000 6425 252d 2d64 6425 2520 3a64     ....%d-%d-%d %d:
    3d28:	6425 253a 0064 0000 2323 2323 2323 2323     %d:%d...########
    3d38:	2323 2323 2323 2323 2323 2323 2323 2323     ################
    3d48:	0023 0000 2023 4920 766e 6c61 6469 7420     #...#  Invalid t
    3d58:	6d69 2065 6f66 6d72 7461 2021 0023 0000     ime format! #...
    3d68:	2023 4520 746e 7265 6920 2074 696c 656b     #  Enter it like
    3d78:	7420 6968 3a73 2020 0023 0000 2023 3120      this:  #...#  1
    3d88:	2d30 2d34 3032 3532 3120 3a33 3432 353a     0-4-2025 13:24:5
    3d98:	2030 2020 0023 0000                         0   #...

00003da0 <mon_table>:
    3da0:	1c1f 1e1f 1e1f 1f1f 1f1e 1f1e               ............

00003dac <table_week>:
    3dac:	0300 0603 0401 0206 0005 0503 2d23 2b30     ............#-0+
    3dbc:	0020 0000 6c68 004c 6665 4567 4746 0000      ...hlL.efgEFG..
    3dcc:	3130 3332 3534 3736 3938 4241 4443 4645     0123456789ABCDEF
    3ddc:	0000 0000 3130 3332 3534 3736 3938 6261     ....0123456789ab
    3dec:	6463 6665 0000 0000 2d41 6146 662d 3938     cdef....A-Fa-f89
    3dfc:	3130 3332 3534 3736 005d 0000 2d2b 0000     01234567]...+-..
    3e0c:	3030 0000 5878 0000                         00..xX..

00003e14 <__sf_fake_stderr>:
	...

00003e34 <__sf_fake_stdin>:
	...

00003e54 <__sf_fake_stdout>:
	...
    3e74:	0043 0000 4f50 4953 0058 0000 002e 0000     C...POSIX.......

00003e84 <_ctype_>:
    3e84:	2000 2020 2020 2020 2020 2828 2828 2028     .         ((((( 
    3e94:	2020 2020 2020 2020 2020 2020 2020 2020                     
    3ea4:	8820 1010 1010 1010 1010 1010 1010 1010      ...............
    3eb4:	0410 0404 0404 0404 0404 1004 1010 1010     ................
    3ec4:	1010 4141 4141 4141 0101 0101 0101 0101     ..AAAAAA........
    3ed4:	0101 0101 0101 0101 0101 0101 1010 1010     ................
    3ee4:	1010 4242 4242 4242 0202 0202 0202 0202     ..BBBBBB........
    3ef4:	0202 0202 0202 0202 0202 0202 1010 1010     ................
    3f04:	0020 0000 0000 0000 0000 0000 0000 0000      ...............
	...
